
/home/zzyubuntu/ics2022/am-kernels/tests/am-tests/build/amtest-riscv32-nemu.elf:     file format elf32-littleriscv


Disassembly of section .text:

80000000 <_start>:
80000000:	00000413          	li	s0,0
80000004:	0009d117          	auipc	sp,0x9d
80000008:	ffc10113          	addi	sp,sp,-4 # 8009d000 <_end>
8000000c:	76d000ef          	jal	ra,80000f78 <_trm_init>

80000010 <simple_trap>:
80000010:	00052783          	lw	a5,0(a0)
80000014:	ff010113          	addi	sp,sp,-16
80000018:	00812423          	sw	s0,8(sp)
8000001c:	00112623          	sw	ra,12(sp)
80000020:	00500713          	li	a4,5
80000024:	00058413          	mv	s0,a1
80000028:	02e78463          	beq	a5,a4,80000050 <simple_trap+0x40>
8000002c:	00600713          	li	a4,6
80000030:	04e78c63          	beq	a5,a4,80000088 <simple_trap+0x78>
80000034:	00100713          	li	a4,1
80000038:	02e78a63          	beq	a5,a4,8000006c <simple_trap+0x5c>
8000003c:	00c12083          	lw	ra,12(sp)
80000040:	00040513          	mv	a0,s0
80000044:	00812403          	lw	s0,8(sp)
80000048:	01010113          	addi	sp,sp,16
8000004c:	00008067          	ret
80000050:	07400513          	li	a0,116
80000054:	70d000ef          	jal	ra,80000f60 <putch>
80000058:	00c12083          	lw	ra,12(sp)
8000005c:	00040513          	mv	a0,s0
80000060:	00812403          	lw	s0,8(sp)
80000064:	01010113          	addi	sp,sp,16
80000068:	00008067          	ret
8000006c:	07900513          	li	a0,121
80000070:	6f1000ef          	jal	ra,80000f60 <putch>
80000074:	00c12083          	lw	ra,12(sp)
80000078:	00040513          	mv	a0,s0
8000007c:	00812403          	lw	s0,8(sp)
80000080:	01010113          	addi	sp,sp,16
80000084:	00008067          	ret
80000088:	06400513          	li	a0,100
8000008c:	6d5000ef          	jal	ra,80000f60 <putch>
80000090:	00c12083          	lw	ra,12(sp)
80000094:	00040513          	mv	a0,s0
80000098:	00812403          	lw	s0,8(sp)
8000009c:	01010113          	addi	sp,sp,16
800000a0:	00008067          	ret

800000a4 <hello_intr>:
800000a4:	80002537          	lui	a0,0x80002
800000a8:	fe010113          	addi	sp,sp,-32
800000ac:	c4c50513          	addi	a0,a0,-948 # 80001c4c <_end+0xfff64c4c>
800000b0:	00112e23          	sw	ra,28(sp)
800000b4:	00812c23          	sw	s0,24(sp)
800000b8:	404010ef          	jal	ra,800014bc <printf>
800000bc:	80002537          	lui	a0,0x80002
800000c0:	c6850513          	addi	a0,a0,-920 # 80001c68 <_end+0xfff64c68>
800000c4:	3f8010ef          	jal	ra,800014bc <printf>
800000c8:	00c10593          	addi	a1,sp,12
800000cc:	00700513          	li	a0,7
800000d0:	7b5000ef          	jal	ra,80001084 <ioe_read>
800000d4:	00100513          	li	a0,1
800000d8:	00989437          	lui	s0,0x989
800000dc:	1ac010ef          	jal	ra,80001288 <iset>
800000e0:	67f40413          	addi	s0,s0,1663 # 98967f <_entry_offset+0x98967f>
800000e4:	00012623          	sw	zero,12(sp)
800000e8:	00c12783          	lw	a5,12(sp)
800000ec:	00f44c63          	blt	s0,a5,80000104 <hello_intr+0x60>
800000f0:	00c12783          	lw	a5,12(sp)
800000f4:	00178793          	addi	a5,a5,1
800000f8:	00f12623          	sw	a5,12(sp)
800000fc:	00c12783          	lw	a5,12(sp)
80000100:	fef458e3          	bge	s0,a5,800000f0 <hello_intr+0x4c>
80000104:	178010ef          	jal	ra,8000127c <yield>
80000108:	fddff06f          	j	800000e4 <hello_intr+0x40>

8000010c <redraw>:
8000010c:	fb010113          	addi	sp,sp,-80
80000110:	00810593          	addi	a1,sp,8
80000114:	00900513          	li	a0,9
80000118:	04112623          	sw	ra,76(sp)
8000011c:	03412c23          	sw	s4,56(sp)
80000120:	03612823          	sw	s6,48(sp)
80000124:	03812423          	sw	s8,40(sp)
80000128:	04812423          	sw	s0,72(sp)
8000012c:	04912223          	sw	s1,68(sp)
80000130:	05212023          	sw	s2,64(sp)
80000134:	03312e23          	sw	s3,60(sp)
80000138:	03512a23          	sw	s5,52(sp)
8000013c:	03712623          	sw	s7,44(sp)
80000140:	03912223          	sw	s9,36(sp)
80000144:	741000ef          	jal	ra,80001084 <ioe_read>
80000148:	00c12783          	lw	a5,12(sp)
8000014c:	00810593          	addi	a1,sp,8
80000150:	00900513          	li	a0,9
80000154:	41f7dc13          	srai	s8,a5,0x1f
80000158:	01fc7c13          	andi	s8,s8,31
8000015c:	00fc0c33          	add	s8,s8,a5
80000160:	725000ef          	jal	ra,80001084 <ioe_read>
80000164:	01012783          	lw	a5,16(sp)
80000168:	405c5c13          	srai	s8,s8,0x5
8000016c:	40000713          	li	a4,1024
80000170:	41f7da13          	srai	s4,a5,0x1f
80000174:	01fa7a13          	andi	s4,s4,31
80000178:	00fa0a33          	add	s4,s4,a5
8000017c:	405a5a13          	srai	s4,s4,0x5
80000180:	034c0b33          	mul	s6,s8,s4
80000184:	0f676463          	bltu	a4,s6,8000026c <redraw+0x160>
80000188:	80011bb7          	lui	s7,0x80011
8000018c:	800129b7          	lui	s3,0x80012
80000190:	000017b7          	lui	a5,0x1
80000194:	95cb8b93          	addi	s7,s7,-1700 # 8001095c <_end+0xfff7395c>
80000198:	95c98993          	addi	s3,s3,-1700 # 8001195c <_end+0xfff7495c>
8000019c:	002b1413          	slli	s0,s6,0x2
800001a0:	08078793          	addi	a5,a5,128 # 1080 <_entry_offset+0x1080>
800001a4:	080b8a93          	addi	s5,s7,128
800001a8:	00898433          	add	s0,s3,s0
800001ac:	00fb8bb3          	add	s7,s7,a5
800001b0:	00000c93          	li	s9,0
800001b4:	f80a8493          	addi	s1,s5,-128
800001b8:	00000913          	li	s2,0
800001bc:	000b0c63          	beqz	s6,800001d4 <redraw+0xc8>
800001c0:	0004a703          	lw	a4,0(s1)
800001c4:	00098793          	mv	a5,s3
800001c8:	00e7a023          	sw	a4,0(a5)
800001cc:	00478793          	addi	a5,a5,4
800001d0:	fe879ce3          	bne	a5,s0,800001c8 <redraw+0xbc>
800001d4:	00448493          	addi	s1,s1,4
800001d8:	00810593          	addi	a1,sp,8
800001dc:	00b00513          	li	a0,11
800001e0:	01212423          	sw	s2,8(sp)
800001e4:	01912623          	sw	s9,12(sp)
800001e8:	01312823          	sw	s3,16(sp)
800001ec:	01812a23          	sw	s8,20(sp)
800001f0:	01412c23          	sw	s4,24(sp)
800001f4:	00010e23          	sb	zero,28(sp)
800001f8:	01890933          	add	s2,s2,s8
800001fc:	6a5000ef          	jal	ra,800010a0 <ioe_write>
80000200:	fb549ee3          	bne	s1,s5,800001bc <redraw+0xb0>
80000204:	08048a93          	addi	s5,s1,128
80000208:	014c8cb3          	add	s9,s9,s4
8000020c:	fb7a94e3          	bne	s5,s7,800001b4 <redraw+0xa8>
80000210:	00810593          	addi	a1,sp,8
80000214:	00100793          	li	a5,1
80000218:	00b00513          	li	a0,11
8000021c:	00012423          	sw	zero,8(sp)
80000220:	00012623          	sw	zero,12(sp)
80000224:	00012823          	sw	zero,16(sp)
80000228:	00012a23          	sw	zero,20(sp)
8000022c:	00012c23          	sw	zero,24(sp)
80000230:	00f10e23          	sb	a5,28(sp)
80000234:	66d000ef          	jal	ra,800010a0 <ioe_write>
80000238:	04c12083          	lw	ra,76(sp)
8000023c:	04812403          	lw	s0,72(sp)
80000240:	04412483          	lw	s1,68(sp)
80000244:	04012903          	lw	s2,64(sp)
80000248:	03c12983          	lw	s3,60(sp)
8000024c:	03812a03          	lw	s4,56(sp)
80000250:	03412a83          	lw	s5,52(sp)
80000254:	03012b03          	lw	s6,48(sp)
80000258:	02c12b83          	lw	s7,44(sp)
8000025c:	02812c03          	lw	s8,40(sp)
80000260:	02412c83          	lw	s9,36(sp)
80000264:	05010113          	addi	sp,sp,80
80000268:	00008067          	ret
8000026c:	800025b7          	lui	a1,0x80002
80000270:	80002537          	lui	a0,0x80002
80000274:	01600613          	li	a2,22
80000278:	c8c58593          	addi	a1,a1,-884 # 80001c8c <_end+0xfff64c8c>
8000027c:	cd050513          	addi	a0,a0,-816 # 80001cd0 <_end+0xfff64cd0>
80000280:	23c010ef          	jal	ra,800014bc <printf>
80000284:	00100513          	li	a0,1
80000288:	4e5000ef          	jal	ra,80000f6c <halt>

8000028c <update>:
8000028c:	800957b7          	lui	a5,0x80095
80000290:	bfc78793          	addi	a5,a5,-1028 # 80094bfc <_end+0xffff7bfc>
80000294:	0007a383          	lw	t2,0(a5)
80000298:	ff010113          	addi	sp,sp,-16
8000029c:	80013e37          	lui	t3,0x80013
800002a0:	000016b7          	lui	a3,0x1
800002a4:	95ce0e13          	addi	t3,t3,-1700 # 8001295c <_end+0xfff7595c>
800002a8:	00812623          	sw	s0,12(sp)
800002ac:	00912423          	sw	s1,8(sp)
800002b0:	01212223          	sw	s2,4(sp)
800002b4:	01312023          	sw	s3,0(sp)
800002b8:	00138393          	addi	t2,t2,1
800002bc:	08068693          	addi	a3,a3,128 # 1080 <_entry_offset+0x1080>
800002c0:	0077a023          	sw	t2,0(a5)
800002c4:	080e0713          	addi	a4,t3,128
800002c8:	00de06b3          	add	a3,t3,a3
800002cc:	f8070793          	addi	a5,a4,-128
800002d0:	0007a023          	sw	zero,0(a5)
800002d4:	00478793          	addi	a5,a5,4
800002d8:	fef71ce3          	bne	a4,a5,800002d0 <update+0x44>
800002dc:	08070713          	addi	a4,a4,128
800002e0:	fed716e3          	bne	a4,a3,800002cc <update+0x40>
800002e4:	0ff3f693          	zext.b	a3,t2
800002e8:	00169793          	slli	a5,a3,0x1
800002ec:	00f687b3          	add	a5,a3,a5
800002f0:	00369713          	slli	a4,a3,0x3
800002f4:	00179793          	slli	a5,a5,0x1
800002f8:	40d70733          	sub	a4,a4,a3
800002fc:	0ff7f793          	zext.b	a5,a5
80000300:	0ff77713          	zext.b	a4,a4
80000304:	00871713          	slli	a4,a4,0x8
80000308:	01079793          	slli	a5,a5,0x10
8000030c:	00e7e7b3          	or	a5,a5,a4
80000310:	80011437          	lui	s0,0x80011
80000314:	0ff3f713          	zext.b	a4,t2
80000318:	00e7e7b3          	or	a5,a5,a4
8000031c:	95c40413          	addi	s0,s0,-1700 # 8001095c <_end+0xfff7395c>
80000320:	00f42023          	sw	a5,0(s0)
80000324:	80002337          	lui	t1,0x80002
80000328:	00100793          	li	a5,1
8000032c:	800028b7          	lui	a7,0x80002
80000330:	00fe2023          	sw	a5,0(t3)
80000334:	00100713          	li	a4,1
80000338:	00000793          	li	a5,0
8000033c:	00100f93          	li	t6,1
80000340:	00000593          	li	a1,0
80000344:	00000913          	li	s2,0
80000348:	00000e93          	li	t4,0
8000034c:	01f00f13          	li	t5,31
80000350:	cfc30313          	addi	t1,t1,-772 # 80001cfc <_end+0xfff64cfc>
80000354:	d0c88893          	addi	a7,a7,-756 # 80001d0c <_end+0xfff64d0c>
80000358:	00100493          	li	s1,1
8000035c:	40000293          	li	t0,1024
80000360:	00400693          	li	a3,4
80000364:	00fe8633          	add	a2,t4,a5
80000368:	00e90733          	add	a4,s2,a4
8000036c:	00561793          	slli	a5,a2,0x5
80000370:	00e787b3          	add	a5,a5,a4
80000374:	00279793          	slli	a5,a5,0x2
80000378:	00e66533          	or	a0,a2,a4
8000037c:	00fe09b3          	add	s3,t3,a5
80000380:	00158813          	addi	a6,a1,1
80000384:	fff68693          	addi	a3,a3,-1
80000388:	00af6663          	bltu	t5,a0,80000394 <update+0x108>
8000038c:	0009a503          	lw	a0,0(s3)
80000390:	02050263          	beqz	a0,800003b4 <update+0x128>
80000394:	00387593          	andi	a1,a6,3
80000398:	00259793          	slli	a5,a1,0x2
8000039c:	00f30633          	add	a2,t1,a5
800003a0:	00f88733          	add	a4,a7,a5
800003a4:	06068063          	beqz	a3,80000404 <update+0x178>
800003a8:	00062783          	lw	a5,0(a2)
800003ac:	00072703          	lw	a4,0(a4)
800003b0:	fb5ff06f          	j	80000364 <update+0xd8>
800003b4:	401fd813          	srai	a6,t6,0x1
800003b8:	00780833          	add	a6,a6,t2
800003bc:	0ff87e93          	zext.b	t4,a6
800003c0:	001e9513          	slli	a0,t4,0x1
800003c4:	00ae8533          	add	a0,t4,a0
800003c8:	003e9693          	slli	a3,t4,0x3
800003cc:	41d686b3          	sub	a3,a3,t4
800003d0:	00151513          	slli	a0,a0,0x1
800003d4:	0ff57513          	zext.b	a0,a0
800003d8:	0ff6f693          	zext.b	a3,a3
800003dc:	00869693          	slli	a3,a3,0x8
800003e0:	01051513          	slli	a0,a0,0x10
800003e4:	00d56533          	or	a0,a0,a3
800003e8:	0ff87813          	zext.b	a6,a6
800003ec:	00f406b3          	add	a3,s0,a5
800003f0:	010567b3          	or	a5,a0,a6
800003f4:	0099a023          	sw	s1,0(s3)
800003f8:	00f6a023          	sw	a5,0(a3)
800003fc:	00070913          	mv	s2,a4
80000400:	00060e93          	mv	t4,a2
80000404:	001f8f93          	addi	t6,t6,1
80000408:	005f8e63          	beq	t6,t0,80000424 <update+0x198>
8000040c:	00259793          	slli	a5,a1,0x2
80000410:	00f88733          	add	a4,a7,a5
80000414:	00f306b3          	add	a3,t1,a5
80000418:	0006a783          	lw	a5,0(a3)
8000041c:	00072703          	lw	a4,0(a4)
80000420:	f41ff06f          	j	80000360 <update+0xd4>
80000424:	00c12403          	lw	s0,12(sp)
80000428:	00812483          	lw	s1,8(sp)
8000042c:	00412903          	lw	s2,4(sp)
80000430:	00012983          	lw	s3,0(sp)
80000434:	01010113          	addi	sp,sp,16
80000438:	00008067          	ret

8000043c <video_test>:
8000043c:	fd010113          	addi	sp,sp,-48
80000440:	02912223          	sw	s1,36(sp)
80000444:	03212023          	sw	s2,32(sp)
80000448:	01312e23          	sw	s3,28(sp)
8000044c:	01412c23          	sw	s4,24(sp)
80000450:	01512a23          	sw	s5,20(sp)
80000454:	01612823          	sw	s6,16(sp)
80000458:	02112623          	sw	ra,44(sp)
8000045c:	02812423          	sw	s0,40(sp)
80000460:	00000993          	li	s3,0
80000464:	00000913          	li	s2,0
80000468:	00000493          	li	s1,0
8000046c:	80002b37          	lui	s6,0x80002
80000470:	02100a93          	li	s5,33
80000474:	3e800a13          	li	s4,1000
80000478:	00810593          	addi	a1,sp,8
8000047c:	00600513          	li	a0,6
80000480:	405000ef          	jal	ra,80001084 <ioe_read>
80000484:	00812503          	lw	a0,8(sp)
80000488:	00c12583          	lw	a1,12(sp)
8000048c:	3e800613          	li	a2,1000
80000490:	00000693          	li	a3,0
80000494:	6a4010ef          	jal	ra,80001b38 <__udivdi3>
80000498:	409507b3          	sub	a5,a0,s1
8000049c:	00050413          	mv	s0,a0
800004a0:	02fae463          	bltu	s5,a5,800004c8 <video_test+0x8c>
800004a4:	412407b3          	sub	a5,s0,s2
800004a8:	fcfa78e3          	bgeu	s4,a5,80000478 <video_test+0x3c>
800004ac:	00098613          	mv	a2,s3
800004b0:	00040593          	mv	a1,s0
800004b4:	cecb0513          	addi	a0,s6,-788 # 80001cec <_end+0xfff64cec>
800004b8:	004010ef          	jal	ra,800014bc <printf>
800004bc:	00040913          	mv	s2,s0
800004c0:	00000993          	li	s3,0
800004c4:	fb5ff06f          	j	80000478 <video_test+0x3c>
800004c8:	dc5ff0ef          	jal	ra,8000028c <update>
800004cc:	00198993          	addi	s3,s3,1
800004d0:	c3dff0ef          	jal	ra,8000010c <redraw>
800004d4:	00040493          	mv	s1,s0
800004d8:	fcdff06f          	j	800004a4 <video_test+0x68>

800004dc <simple_pgalloc>:
800004dc:	80095637          	lui	a2,0x80095
800004e0:	c0060613          	addi	a2,a2,-1024 # 80094c00 <_end+0xffff7c00>
800004e4:	00062683          	lw	a3,0(a2)
800004e8:	00069663          	bnez	a3,800004f4 <simple_pgalloc+0x18>
800004ec:	800107b7          	lui	a5,0x80010
800004f0:	7507a683          	lw	a3,1872(a5) # 80010750 <_end+0xfff73750>
800004f4:	02a6f7b3          	remu	a5,a3,a0
800004f8:	00078c63          	beqz	a5,80000510 <simple_pgalloc+0x34>
800004fc:	00168793          	addi	a5,a3,1
80000500:	02a7f733          	remu	a4,a5,a0
80000504:	00078693          	mv	a3,a5
80000508:	00178793          	addi	a5,a5,1
8000050c:	fe071ae3          	bnez	a4,80000500 <simple_pgalloc+0x24>
80000510:	00d50533          	add	a0,a0,a3
80000514:	00a62023          	sw	a0,0(a2)
80000518:	00068513          	mv	a0,a3
8000051c:	00008067          	ret

80000520 <simple_pgfree>:
80000520:	00008067          	ret

80000524 <vm_handler>:
80000524:	00052783          	lw	a5,0(a0)
80000528:	fe010113          	addi	sp,sp,-32
8000052c:	00812c23          	sw	s0,24(sp)
80000530:	00112e23          	sw	ra,28(sp)
80000534:	00300713          	li	a4,3
80000538:	00452803          	lw	a6,4(a0)
8000053c:	00058413          	mv	s0,a1
80000540:	0ce78263          	beq	a5,a4,80000604 <vm_handler+0xe0>
80000544:	08f76263          	bltu	a4,a5,800005c8 <vm_handler+0xa4>
80000548:	00100713          	li	a4,1
8000054c:	08e78c63          	beq	a5,a4,800005e4 <vm_handler+0xc0>
80000550:	00200713          	li	a4,2
80000554:	0ee79e63          	bne	a5,a4,80000650 <vm_handler+0x12c>
80000558:	00100513          	li	a0,1
8000055c:	52d000ef          	jal	ra,80001288 <iset>
80000560:	00012623          	sw	zero,12(sp)
80000564:	00c12783          	lw	a5,12(sp)
80000568:	000f4737          	lui	a4,0xf4
8000056c:	23f70713          	addi	a4,a4,575 # f423f <_entry_offset+0xf423f>
80000570:	00f74c63          	blt	a4,a5,80000588 <vm_handler+0x64>
80000574:	00c12783          	lw	a5,12(sp)
80000578:	00178793          	addi	a5,a5,1
8000057c:	00f12623          	sw	a5,12(sp)
80000580:	00c12783          	lw	a5,12(sp)
80000584:	fef758e3          	bge	a4,a5,80000574 <vm_handler+0x50>
80000588:	00842583          	lw	a1,8(s0)
8000058c:	80002537          	lui	a0,0x80002
80000590:	d6450513          	addi	a0,a0,-668 # 80001d64 <_end+0xfff64d64>
80000594:	729000ef          	jal	ra,800014bc <printf>
80000598:	800107b7          	lui	a5,0x80010
8000059c:	74c78793          	addi	a5,a5,1868 # 8001074c <_end+0xfff7374c>
800005a0:	0007a703          	lw	a4,0(a5)
800005a4:	00070863          	beqz	a4,800005b4 <vm_handler+0x90>
800005a8:	80095737          	lui	a4,0x80095
800005ac:	c0472403          	lw	s0,-1020(a4) # 80094c04 <_end+0xffff7c04>
800005b0:	0007a023          	sw	zero,0(a5)
800005b4:	01c12083          	lw	ra,28(sp)
800005b8:	00040513          	mv	a0,s0
800005bc:	01812403          	lw	s0,24(sp)
800005c0:	02010113          	addi	sp,sp,32
800005c4:	00008067          	ret
800005c8:	ffb78793          	addi	a5,a5,-5
800005cc:	00100713          	li	a4,1
800005d0:	08f76063          	bltu	a4,a5,80000650 <vm_handler+0x12c>
800005d4:	00c52583          	lw	a1,12(a0)
800005d8:	80002537          	lui	a0,0x80002
800005dc:	d3850513          	addi	a0,a0,-712 # 80001d38 <_end+0xfff64d38>
800005e0:	6dd000ef          	jal	ra,800014bc <printf>
800005e4:	800107b7          	lui	a5,0x80010
800005e8:	74c78793          	addi	a5,a5,1868 # 8001074c <_end+0xfff7374c>
800005ec:	0007a703          	lw	a4,0(a5)
800005f0:	fc0702e3          	beqz	a4,800005b4 <vm_handler+0x90>
800005f4:	80095737          	lui	a4,0x80095
800005f8:	c0472403          	lw	s0,-1020(a4) # 80094c04 <_end+0xffff7c04>
800005fc:	0007a023          	sw	zero,0(a5)
80000600:	fb5ff06f          	j	800005b4 <vm_handler+0x90>
80000604:	00187793          	andi	a5,a6,1
80000608:	00852583          	lw	a1,8(a0)
8000060c:	02079a63          	bnez	a5,80000640 <vm_handler+0x11c>
80000610:	80003637          	lui	a2,0x80003
80000614:	88460693          	addi	a3,a2,-1916 # 80002884 <_end+0xfff65884>
80000618:	00287813          	andi	a6,a6,2
8000061c:	88460713          	addi	a4,a2,-1916
80000620:	00080663          	beqz	a6,8000062c <vm_handler+0x108>
80000624:	80002737          	lui	a4,0x80002
80000628:	d2870713          	addi	a4,a4,-728 # 80001d28 <_end+0xfff64d28>
8000062c:	80002537          	lui	a0,0x80002
80000630:	88460613          	addi	a2,a2,-1916
80000634:	d5450513          	addi	a0,a0,-684 # 80001d54 <_end+0xfff64d54>
80000638:	685000ef          	jal	ra,800014bc <printf>
8000063c:	fa9ff06f          	j	800005e4 <vm_handler+0xc0>
80000640:	800026b7          	lui	a3,0x80002
80000644:	d1c68693          	addi	a3,a3,-740 # 80001d1c <_end+0xfff64d1c>
80000648:	80003637          	lui	a2,0x80003
8000064c:	fcdff06f          	j	80000618 <vm_handler+0xf4>
80000650:	800025b7          	lui	a1,0x80002
80000654:	80002537          	lui	a0,0x80002
80000658:	02800613          	li	a2,40
8000065c:	d6858593          	addi	a1,a1,-664 # 80001d68 <_end+0xfff64d68>
80000660:	cd050513          	addi	a0,a0,-816 # 80001cd0 <_end+0xfff64cd0>
80000664:	659000ef          	jal	ra,800014bc <printf>
80000668:	00100513          	li	a0,1
8000066c:	101000ef          	jal	ra,80000f6c <halt>

80000670 <vm_test>:
80000670:	fd010113          	addi	sp,sp,-48
80000674:	02812423          	sw	s0,40(sp)
80000678:	800025b7          	lui	a1,0x80002
8000067c:	80002437          	lui	s0,0x80002
80000680:	00300613          	li	a2,3
80000684:	dac58593          	addi	a1,a1,-596 # 80001dac <_end+0xfff64dac>
80000688:	db040513          	addi	a0,s0,-592 # 80001db0 <_end+0xfff64db0>
8000068c:	02112623          	sw	ra,44(sp)
80000690:	02912223          	sw	s1,36(sp)
80000694:	03212023          	sw	s2,32(sp)
80000698:	01312e23          	sw	s3,28(sp)
8000069c:	0c0010ef          	jal	ra,8000175c <strncmp>
800006a0:	00050c63          	beqz	a0,800006b8 <vm_test+0x48>
800006a4:	800025b7          	lui	a1,0x80002
800006a8:	db858593          	addi	a1,a1,-584 # 80001db8 <_end+0xfff64db8>
800006ac:	db040513          	addi	a0,s0,-592
800006b0:	04c010ef          	jal	ra,800016fc <strcmp>
800006b4:	0e051e63          	bnez	a0,800007b0 <vm_test+0x140>
800006b8:	800149b7          	lui	s3,0x80014
800006bc:	95c98513          	addi	a0,s3,-1700 # 8001395c <_end+0xfff7695c>
800006c0:	55d000ef          	jal	ra,8000141c <protect>
800006c4:	95c98913          	addi	s2,s3,-1700
800006c8:	00892603          	lw	a2,8(s2)
800006cc:	00492583          	lw	a1,4(s2)
800006d0:	80002537          	lui	a0,0x80002
800006d4:	de050513          	addi	a0,a0,-544 # 80001de0 <_end+0xfff64de0>
800006d8:	5e5000ef          	jal	ra,800014bc <printf>
800006dc:	00492783          	lw	a5,4(s2)
800006e0:	00892483          	lw	s1,8(s2)
800006e4:	800956b7          	lui	a3,0x80095
800006e8:	c0068693          	addi	a3,a3,-1024 # 80094c00 <_end+0xffff7c00>
800006ec:	0006a403          	lw	s0,0(a3)
800006f0:	40f484b3          	sub	s1,s1,a5
800006f4:	0014d493          	srli	s1,s1,0x1
800006f8:	00092703          	lw	a4,0(s2)
800006fc:	00f484b3          	add	s1,s1,a5
80000700:	00041c63          	bnez	s0,80000718 <vm_test+0xa8>
80000704:	800107b7          	lui	a5,0x80010
80000708:	7507a403          	lw	s0,1872(a5) # 80010750 <_end+0xfff73750>
8000070c:	02e477b3          	remu	a5,s0,a4
80000710:	00078863          	beqz	a5,80000720 <vm_test+0xb0>
80000714:	00140413          	addi	s0,s0,1
80000718:	02e477b3          	remu	a5,s0,a4
8000071c:	fe079ce3          	bnez	a5,80000714 <vm_test+0xa4>
80000720:	800105b7          	lui	a1,0x80010
80000724:	00870733          	add	a4,a4,s0
80000728:	73c58593          	addi	a1,a1,1852 # 8001073c <_end+0xfff7373c>
8000072c:	00f00613          	li	a2,15
80000730:	00040513          	mv	a0,s0
80000734:	00e6a023          	sw	a4,0(a3)
80000738:	0b8010ef          	jal	ra,800017f0 <memcpy>
8000073c:	00300693          	li	a3,3
80000740:	95c98513          	addi	a0,s3,-1700
80000744:	00040613          	mv	a2,s0
80000748:	00048593          	mv	a1,s1
8000074c:	529000ef          	jal	ra,80001474 <map>
80000750:	80002537          	lui	a0,0x80002
80000754:	00040613          	mv	a2,s0
80000758:	00048593          	mv	a1,s1
8000075c:	e0450513          	addi	a0,a0,-508 # 80001e04 <_end+0xfff64e04>
80000760:	55d000ef          	jal	ra,800014bc <printf>
80000764:	800145b7          	lui	a1,0x80014
80000768:	80015637          	lui	a2,0x80015
8000076c:	00048693          	mv	a3,s1
80000770:	96c58593          	addi	a1,a1,-1684 # 8001396c <_end+0xfff7696c>
80000774:	96c60613          	addi	a2,a2,-1684 # 8001496c <_end+0xfff7796c>
80000778:	95c98513          	addi	a0,s3,-1700
8000077c:	4fd000ef          	jal	ra,80001478 <ucontext>
80000780:	00050713          	mv	a4,a0
80000784:	800957b7          	lui	a5,0x80095
80000788:	00100513          	li	a0,1
8000078c:	c0e7a223          	sw	a4,-1020(a5) # 80094c04 <_end+0xffff7c04>
80000790:	2f9000ef          	jal	ra,80001288 <iset>
80000794:	02812403          	lw	s0,40(sp)
80000798:	02c12083          	lw	ra,44(sp)
8000079c:	02412483          	lw	s1,36(sp)
800007a0:	02012903          	lw	s2,32(sp)
800007a4:	01c12983          	lw	s3,28(sp)
800007a8:	03010113          	addi	sp,sp,48
800007ac:	2d10006f          	j	8000127c <yield>
800007b0:	02812403          	lw	s0,40(sp)
800007b4:	02c12083          	lw	ra,44(sp)
800007b8:	02412483          	lw	s1,36(sp)
800007bc:	02012903          	lw	s2,32(sp)
800007c0:	01c12983          	lw	s3,28(sp)
800007c4:	80002537          	lui	a0,0x80002
800007c8:	dc050513          	addi	a0,a0,-576 # 80001dc0 <_end+0xfff64dc0>
800007cc:	03010113          	addi	sp,sp,48
800007d0:	4ed0006f          	j	800014bc <printf>

800007d4 <devscan>:
800007d4:	800107b7          	lui	a5,0x80010
800007d8:	75078793          	addi	a5,a5,1872 # 80010750 <_end+0xfff73750>
800007dc:	0047a603          	lw	a2,4(a5)
800007e0:	0007a583          	lw	a1,0(a5)
800007e4:	80002537          	lui	a0,0x80002
800007e8:	fc010113          	addi	sp,sp,-64
800007ec:	e3050513          	addi	a0,a0,-464 # 80001e30 <_end+0xfff64e30>
800007f0:	02112e23          	sw	ra,60(sp)
800007f4:	02812c23          	sw	s0,56(sp)
800007f8:	02912a23          	sw	s1,52(sp)
800007fc:	03212823          	sw	s2,48(sp)
80000800:	03312623          	sw	s3,44(sp)
80000804:	03412423          	sw	s4,40(sp)
80000808:	03512223          	sw	s5,36(sp)
8000080c:	4b1000ef          	jal	ra,800014bc <printf>
80000810:	80002537          	lui	a0,0x80002
80000814:	e4850513          	addi	a0,a0,-440 # 80001e48 <_end+0xfff64e48>
80000818:	4a5000ef          	jal	ra,800014bc <printf>
8000081c:	01010593          	addi	a1,sp,16
80000820:	00600513          	li	a0,6
80000824:	061000ef          	jal	ra,80001084 <ioe_read>
80000828:	01012503          	lw	a0,16(sp)
8000082c:	01412583          	lw	a1,20(sp)
80000830:	3e800613          	li	a2,1000
80000834:	00000693          	li	a3,0
80000838:	300010ef          	jal	ra,80001b38 <__udivdi3>
8000083c:	00012623          	sw	zero,12(sp)
80000840:	00c12783          	lw	a5,12(sp)
80000844:	00989737          	lui	a4,0x989
80000848:	67f70713          	addi	a4,a4,1663 # 98967f <_entry_offset+0x98967f>
8000084c:	00050413          	mv	s0,a0
80000850:	00f74c63          	blt	a4,a5,80000868 <devscan+0x94>
80000854:	00c12783          	lw	a5,12(sp)
80000858:	00178793          	addi	a5,a5,1
8000085c:	00f12623          	sw	a5,12(sp)
80000860:	00c12783          	lw	a5,12(sp)
80000864:	fef758e3          	bge	a4,a5,80000854 <devscan+0x80>
80000868:	01010593          	addi	a1,sp,16
8000086c:	00600513          	li	a0,6
80000870:	015000ef          	jal	ra,80001084 <ioe_read>
80000874:	01012503          	lw	a0,16(sp)
80000878:	01412583          	lw	a1,20(sp)
8000087c:	3e800613          	li	a2,1000
80000880:	00000693          	li	a3,0
80000884:	2b4010ef          	jal	ra,80001b38 <__udivdi3>
80000888:	408505b3          	sub	a1,a0,s0
8000088c:	80002537          	lui	a0,0x80002
80000890:	e6450513          	addi	a0,a0,-412 # 80001e64 <_end+0xfff64e64>
80000894:	429000ef          	jal	ra,800014bc <printf>
80000898:	01010593          	addi	a1,sp,16
8000089c:	00900513          	li	a0,9
800008a0:	7e4000ef          	jal	ra,80001084 <ioe_read>
800008a4:	01412983          	lw	s3,20(sp)
800008a8:	01812903          	lw	s2,24(sp)
800008ac:	80002537          	lui	a0,0x80002
800008b0:	00098593          	mv	a1,s3
800008b4:	00090613          	mv	a2,s2
800008b8:	e8450513          	addi	a0,a0,-380 # 80001e84 <_end+0xfff64e84>
800008bc:	80015437          	lui	s0,0x80015
800008c0:	800954b7          	lui	s1,0x80095
800008c4:	3f9000ef          	jal	ra,800014bc <printf>
800008c8:	c3c40413          	addi	s0,s0,-964 # 80014c3c <_end+0xfff77c3c>
800008cc:	b6c48493          	addi	s1,s1,-1172 # 80094b6c <_end+0xffff7b6c>
800008d0:	3b9000ef          	jal	ra,80001488 <rand>
800008d4:	00a40023          	sb	a0,0(s0)
800008d8:	00140413          	addi	s0,s0,1
800008dc:	fe941ae3          	bne	s0,s1,800008d0 <devscan+0xfc>
800008e0:	41f9d713          	srai	a4,s3,0x1f
800008e4:	00377713          	andi	a4,a4,3
800008e8:	800158b7          	lui	a7,0x80015
800008ec:	01370733          	add	a4,a4,s3
800008f0:	b6c88793          	addi	a5,a7,-1172 # 80014b6c <_end+0xfff77b6c>
800008f4:	40275713          	srai	a4,a4,0x2
800008f8:	00e79323          	sh	a4,6(a5)
800008fc:	01f9d693          	srli	a3,s3,0x1f
80000900:	02500713          	li	a4,37
80000904:	00e79923          	sh	a4,18(a5)
80000908:	013686b3          	add	a3,a3,s3
8000090c:	00a00713          	li	a4,10
80000910:	fff00613          	li	a2,-1
80000914:	4016d693          	srai	a3,a3,0x1
80000918:	00e79a23          	sh	a4,20(a5)
8000091c:	f9c90913          	addi	s2,s2,-100
80000920:	0d000713          	li	a4,208
80000924:	ffff0837          	lui	a6,0xffff0
80000928:	00180813          	addi	a6,a6,1 # ffff0001 <_end+0x7ff53001>
8000092c:	00d79523          	sh	a3,10(a5)
80000930:	00e79b23          	sh	a4,22(a5)
80000934:	00c79223          	sh	a2,4(a5)
80000938:	00c79723          	sh	a2,14(a5)
8000093c:	00c79823          	sh	a2,16(a5)
80000940:	01279623          	sh	s2,12(a5)
80000944:	01010593          	addi	a1,sp,16
80000948:	00c00513          	li	a0,12
8000094c:	00079423          	sh	zero,8(a5)
80000950:	00079c23          	sh	zero,24(a5)
80000954:	00f12a23          	sw	a5,20(sp)
80000958:	000807b7          	lui	a5,0x80
8000095c:	b708a623          	sw	a6,-1172(a7)
80000960:	00f12c23          	sw	a5,24(sp)
80000964:	00012823          	sw	zero,16(sp)
80000968:	738000ef          	jal	ra,800010a0 <ioe_write>
8000096c:	00d00513          	li	a0,13
80000970:	01010593          	addi	a1,sp,16
80000974:	00012823          	sw	zero,16(sp)
80000978:	728000ef          	jal	ra,800010a0 <ioe_write>
8000097c:	01010593          	addi	a1,sp,16
80000980:	01200513          	li	a0,18
80000984:	700000ef          	jal	ra,80001084 <ioe_read>
80000988:	01412403          	lw	s0,20(sp)
8000098c:	01812583          	lw	a1,24(sp)
80000990:	80002537          	lui	a0,0x80002
80000994:	00040613          	mv	a2,s0
80000998:	e9c50513          	addi	a0,a0,-356 # 80001e9c <_end+0xfff64e9c>
8000099c:	321000ef          	jal	ra,800014bc <printf>
800009a0:	20000793          	li	a5,512
800009a4:	0287c7b3          	div	a5,a5,s0
800009a8:	80015ab7          	lui	s5,0x80015
800009ac:	96ca8a93          	addi	s5,s5,-1684 # 8001496c <_end+0xfff7796c>
800009b0:	01010593          	addi	a1,sp,16
800009b4:	01400513          	li	a0,20
800009b8:	00010823          	sb	zero,16(sp)
800009bc:	01512a23          	sw	s5,20(sp)
800009c0:	00012c23          	sw	zero,24(sp)
800009c4:	800024b7          	lui	s1,0x80002
800009c8:	00200913          	li	s2,2
800009cc:	002a8413          	addi	s0,s5,2
800009d0:	200a8993          	addi	s3,s5,512
800009d4:	80002a37          	lui	s4,0x80002
800009d8:	41590933          	sub	s2,s2,s5
800009dc:	00f12e23          	sw	a5,28(sp)
800009e0:	6c0000ef          	jal	ra,800010a0 <ioe_write>
800009e4:	001ac603          	lbu	a2,1(s5)
800009e8:	000ac583          	lbu	a1,0(s5)
800009ec:	ed448513          	addi	a0,s1,-300 # 80001ed4 <_end+0xfff64ed4>
800009f0:	2cd000ef          	jal	ra,800014bc <printf>
800009f4:	ed448513          	addi	a0,s1,-300
800009f8:	03340463          	beq	s0,s3,80000a20 <devscan+0x24c>
800009fc:	00144603          	lbu	a2,1(s0)
80000a00:	00044583          	lbu	a1,0(s0)
80000a04:	2b9000ef          	jal	ra,800014bc <printf>
80000a08:	008907b3          	add	a5,s2,s0
80000a0c:	01f7f793          	andi	a5,a5,31
80000a10:	02078063          	beqz	a5,80000a30 <devscan+0x25c>
80000a14:	00240413          	addi	s0,s0,2
80000a18:	ed448513          	addi	a0,s1,-300
80000a1c:	ff3410e3          	bne	s0,s3,800009fc <devscan+0x228>
80000a20:	80002537          	lui	a0,0x80002
80000a24:	ee050513          	addi	a0,a0,-288 # 80001ee0 <_end+0xfff64ee0>
80000a28:	295000ef          	jal	ra,800014bc <printf>
80000a2c:	0000006f          	j	80000a2c <devscan+0x258>
80000a30:	2a0a0513          	addi	a0,s4,672 # 800022a0 <_end+0xfff652a0>
80000a34:	289000ef          	jal	ra,800014bc <printf>
80000a38:	00240413          	addi	s0,s0,2
80000a3c:	fddff06f          	j	80000a18 <devscan+0x244>

80000a40 <hello>:
80000a40:	ff010113          	addi	sp,sp,-16
80000a44:	01212023          	sw	s2,0(sp)
80000a48:	80002937          	lui	s2,0x80002
80000a4c:	00912223          	sw	s1,4(sp)
80000a50:	00112623          	sw	ra,12(sp)
80000a54:	00812423          	sw	s0,8(sp)
80000a58:	00a00493          	li	s1,10
80000a5c:	c4c90913          	addi	s2,s2,-948 # 80001c4c <_end+0xfff64c4c>
80000a60:	00090413          	mv	s0,s2
80000a64:	04800513          	li	a0,72
80000a68:	00140413          	addi	s0,s0,1
80000a6c:	4f4000ef          	jal	ra,80000f60 <putch>
80000a70:	00044503          	lbu	a0,0(s0)
80000a74:	fe051ae3          	bnez	a0,80000a68 <hello+0x28>
80000a78:	fff48493          	addi	s1,s1,-1
80000a7c:	fe0492e3          	bnez	s1,80000a60 <hello+0x20>
80000a80:	00c12083          	lw	ra,12(sp)
80000a84:	00812403          	lw	s0,8(sp)
80000a88:	00412483          	lw	s1,4(sp)
80000a8c:	00012903          	lw	s2,0(sp)
80000a90:	01010113          	addi	sp,sp,16
80000a94:	00008067          	ret

80000a98 <keyboard_test>:
80000a98:	80002537          	lui	a0,0x80002
80000a9c:	fd010113          	addi	sp,sp,-48
80000aa0:	eec50513          	addi	a0,a0,-276 # 80001eec <_end+0xfff64eec>
80000aa4:	02112623          	sw	ra,44(sp)
80000aa8:	02812423          	sw	s0,40(sp)
80000aac:	02912223          	sw	s1,36(sp)
80000ab0:	03212023          	sw	s2,32(sp)
80000ab4:	01312e23          	sw	s3,28(sp)
80000ab8:	01412c23          	sw	s4,24(sp)
80000abc:	01512a23          	sw	s5,20(sp)
80000ac0:	1fd000ef          	jal	ra,800014bc <printf>
80000ac4:	00810593          	addi	a1,sp,8
80000ac8:	00100513          	li	a0,1
80000acc:	5b8000ef          	jal	ra,80001084 <ioe_read>
80000ad0:	00814783          	lbu	a5,8(sp)
80000ad4:	800959b7          	lui	s3,0x80095
80000ad8:	c0998993          	addi	s3,s3,-1015 # 80094c09 <_end+0xffff7c09>
80000adc:	00810593          	addi	a1,sp,8
80000ae0:	00700513          	li	a0,7
80000ae4:	00f98023          	sb	a5,0(s3)
80000ae8:	59c000ef          	jal	ra,80001084 <ioe_read>
80000aec:	00814783          	lbu	a5,8(sp)
80000af0:	80095ab7          	lui	s5,0x80095
80000af4:	c08a8a93          	addi	s5,s5,-1016 # 80094c08 <_end+0xffff7c08>
80000af8:	80002437          	lui	s0,0x80002
80000afc:	80002a37          	lui	s4,0x80002
80000b00:	800024b7          	lui	s1,0x80002
80000b04:	00fa8023          	sb	a5,0(s5)
80000b08:	0fc40413          	addi	s0,s0,252 # 800020fc <_end+0xfff650fc>
80000b0c:	0eca0a13          	addi	s4,s4,236 # 800020ec <_end+0xfff650ec>
80000b10:	0f448493          	addi	s1,s1,244 # 800020f4 <_end+0xfff650f4>
80000b14:	80002937          	lui	s2,0x80002
80000b18:	0009c703          	lbu	a4,0(s3)
80000b1c:	02070463          	beqz	a4,80000b44 <keyboard_test+0xac>
80000b20:	80002437          	lui	s0,0x80002
80000b24:	00810593          	addi	a1,sp,8
80000b28:	00300513          	li	a0,3
80000b2c:	558000ef          	jal	ra,80001084 <ioe_read>
80000b30:	00814603          	lbu	a2,8(sp)
80000b34:	f1840513          	addi	a0,s0,-232 # 80001f18 <_end+0xfff64f18>
80000b38:	00060593          	mv	a1,a2
80000b3c:	181000ef          	jal	ra,800014bc <printf>
80000b40:	fe5ff06f          	j	80000b24 <keyboard_test+0x8c>
80000b44:	00079e63          	bnez	a5,80000b60 <keyboard_test+0xc8>
80000b48:	0000006f          	j	80000b48 <keyboard_test+0xb0>
80000b4c:	0007a583          	lw	a1,0(a5) # 80000 <_entry_offset+0x80000>
80000b50:	00048693          	mv	a3,s1
80000b54:	00071463          	bnez	a4,80000b5c <keyboard_test+0xc4>
80000b58:	000a0693          	mv	a3,s4
80000b5c:	161000ef          	jal	ra,800014bc <printf>
80000b60:	00800513          	li	a0,8
80000b64:	00810593          	addi	a1,sp,8
80000b68:	51c000ef          	jal	ra,80001084 <ioe_read>
80000b6c:	00c12603          	lw	a2,12(sp)
80000b70:	00814703          	lbu	a4,8(sp)
80000b74:	f3090513          	addi	a0,s2,-208 # 80001f30 <_end+0xfff64f30>
80000b78:	00261793          	slli	a5,a2,0x2
80000b7c:	00f407b3          	add	a5,s0,a5
80000b80:	fc0616e3          	bnez	a2,80000b4c <keyboard_test+0xb4>
80000b84:	000ac783          	lbu	a5,0(s5)
80000b88:	f91ff06f          	j	80000b18 <keyboard_test+0x80>

80000b8c <mp_print>:
80000b8c:	ff010113          	addi	sp,sp,-16
80000b90:	00812423          	sw	s0,8(sp)
80000b94:	00112623          	sw	ra,12(sp)
80000b98:	80002437          	lui	s0,0x80002
80000b9c:	654000ef          	jal	ra,800011f0 <cpu_current>
80000ba0:	00050593          	mv	a1,a0
80000ba4:	24840513          	addi	a0,s0,584 # 80002248 <_end+0xfff65248>
80000ba8:	115000ef          	jal	ra,800014bc <printf>
80000bac:	ff1ff06f          	j	80000b9c <mp_print+0x10>

80000bb0 <audio_test>:
80000bb0:	fd010113          	addi	sp,sp,-48
80000bb4:	00410593          	addi	a1,sp,4
80000bb8:	00e00513          	li	a0,14
80000bbc:	02112623          	sw	ra,44(sp)
80000bc0:	02812423          	sw	s0,40(sp)
80000bc4:	02912223          	sw	s1,36(sp)
80000bc8:	03212023          	sw	s2,32(sp)
80000bcc:	01312e23          	sw	s3,28(sp)
80000bd0:	01412c23          	sw	s4,24(sp)
80000bd4:	4b0000ef          	jal	ra,80001084 <ioe_read>
80000bd8:	00414783          	lbu	a5,4(sp)
80000bdc:	0c078863          	beqz	a5,80000cac <audio_test+0xfc>
80000be0:	000027b7          	lui	a5,0x2
80000be4:	f4078793          	addi	a5,a5,-192 # 1f40 <_entry_offset+0x1f40>
80000be8:	00f12223          	sw	a5,4(sp)
80000bec:	00100793          	li	a5,1
80000bf0:	00f12423          	sw	a5,8(sp)
80000bf4:	00410593          	addi	a1,sp,4
80000bf8:	40000793          	li	a5,1024
80000bfc:	00f00513          	li	a0,15
80000c00:	00f12623          	sw	a5,12(sp)
80000c04:	49c000ef          	jal	ra,800010a0 <ioe_write>
80000c08:	800034b7          	lui	s1,0x80003
80000c0c:	800107b7          	lui	a5,0x80010
80000c10:	73c78793          	addi	a5,a5,1852 # 8001073c <_end+0xfff7373c>
80000c14:	93048713          	addi	a4,s1,-1744 # 80002930 <_end+0xfff65930>
80000c18:	40e78933          	sub	s2,a5,a4
80000c1c:	04e78e63          	beq	a5,a4,80000c78 <audio_test+0xc8>
80000c20:	93048493          	addi	s1,s1,-1744
80000c24:	00000413          	li	s0,0
80000c28:	00000793          	li	a5,0
80000c2c:	80002a37          	lui	s4,0x80002
80000c30:	000019b7          	lui	s3,0x1
80000c34:	40f907b3          	sub	a5,s2,a5
80000c38:	00048713          	mv	a4,s1
80000c3c:	00410593          	addi	a1,sp,4
80000c40:	01100513          	li	a0,17
80000c44:	00f9f463          	bgeu	s3,a5,80000c4c <audio_test+0x9c>
80000c48:	000017b7          	lui	a5,0x1
80000c4c:	00f484b3          	add	s1,s1,a5
80000c50:	00f40433          	add	s0,s0,a5
80000c54:	00e12223          	sw	a4,4(sp)
80000c58:	00912423          	sw	s1,8(sp)
80000c5c:	444000ef          	jal	ra,800010a0 <ioe_write>
80000c60:	00090613          	mv	a2,s2
80000c64:	00040593          	mv	a1,s0
80000c68:	280a0513          	addi	a0,s4,640 # 80002280 <_end+0xfff65280>
80000c6c:	051000ef          	jal	ra,800014bc <printf>
80000c70:	00040793          	mv	a5,s0
80000c74:	fd2460e3          	bltu	s0,s2,80000c34 <audio_test+0x84>
80000c78:	00410593          	addi	a1,sp,4
80000c7c:	01000513          	li	a0,16
80000c80:	404000ef          	jal	ra,80001084 <ioe_read>
80000c84:	00412783          	lw	a5,4(sp)
80000c88:	fef048e3          	bgtz	a5,80000c78 <audio_test+0xc8>
80000c8c:	02c12083          	lw	ra,44(sp)
80000c90:	02812403          	lw	s0,40(sp)
80000c94:	02412483          	lw	s1,36(sp)
80000c98:	02012903          	lw	s2,32(sp)
80000c9c:	01c12983          	lw	s3,28(sp)
80000ca0:	01812a03          	lw	s4,24(sp)
80000ca4:	03010113          	addi	sp,sp,48
80000ca8:	00008067          	ret
80000cac:	02812403          	lw	s0,40(sp)
80000cb0:	02c12083          	lw	ra,44(sp)
80000cb4:	02412483          	lw	s1,36(sp)
80000cb8:	02012903          	lw	s2,32(sp)
80000cbc:	01c12983          	lw	s3,28(sp)
80000cc0:	01812a03          	lw	s4,24(sp)
80000cc4:	800025b7          	lui	a1,0x80002
80000cc8:	80002537          	lui	a0,0x80002
80000ccc:	24c58593          	addi	a1,a1,588 # 8000224c <_end+0xfff6524c>
80000cd0:	25c50513          	addi	a0,a0,604 # 8000225c <_end+0xfff6525c>
80000cd4:	03010113          	addi	sp,sp,48
80000cd8:	7e40006f          	j	800014bc <printf>

80000cdc <rtc_test>:
80000cdc:	fc010113          	addi	sp,sp,-64
80000ce0:	03212823          	sw	s2,48(sp)
80000ce4:	000f4937          	lui	s2,0xf4
80000ce8:	02812c23          	sw	s0,56(sp)
80000cec:	02912a23          	sw	s1,52(sp)
80000cf0:	03312623          	sw	s3,44(sp)
80000cf4:	03412423          	sw	s4,40(sp)
80000cf8:	03512223          	sw	s5,36(sp)
80000cfc:	02112e23          	sw	ra,60(sp)
80000d00:	00100413          	li	s0,1
80000d04:	00000493          	li	s1,0
80000d08:	80002ab7          	lui	s5,0x80002
80000d0c:	80002a37          	lui	s4,0x80002
80000d10:	24090913          	addi	s2,s2,576 # f4240 <_entry_offset+0xf4240>
80000d14:	00000993          	li	s3,0
80000d18:	00810593          	addi	a1,sp,8
80000d1c:	00600513          	li	a0,6
80000d20:	364000ef          	jal	ra,80001084 <ioe_read>
80000d24:	00812503          	lw	a0,8(sp)
80000d28:	00c12583          	lw	a1,12(sp)
80000d2c:	00090613          	mv	a2,s2
80000d30:	00098693          	mv	a3,s3
80000d34:	605000ef          	jal	ra,80001b38 <__udivdi3>
80000d38:	00058793          	mv	a5,a1
80000d3c:	00050713          	mv	a4,a0
80000d40:	fc95ece3          	bltu	a1,s1,80000d18 <rtc_test+0x3c>
80000d44:	00810593          	addi	a1,sp,8
80000d48:	00500513          	li	a0,5
80000d4c:	00f49463          	bne	s1,a5,80000d54 <rtc_test+0x78>
80000d50:	fc8764e3          	bltu	a4,s0,80000d18 <rtc_test+0x3c>
80000d54:	330000ef          	jal	ra,80001084 <ioe_read>
80000d58:	01812783          	lw	a5,24(sp)
80000d5c:	01c12803          	lw	a6,28(sp)
80000d60:	01412703          	lw	a4,20(sp)
80000d64:	01012683          	lw	a3,16(sp)
80000d68:	00c12603          	lw	a2,12(sp)
80000d6c:	00812583          	lw	a1,8(sp)
80000d70:	2a4a8513          	addi	a0,s5,676 # 800022a4 <_end+0xfff652a4>
80000d74:	748000ef          	jal	ra,800014bc <printf>
80000d78:	00040593          	mv	a1,s0
80000d7c:	2c0a0513          	addi	a0,s4,704 # 800022c0 <_end+0xfff652c0>
80000d80:	73c000ef          	jal	ra,800014bc <printf>
80000d84:	00140793          	addi	a5,s0,1
80000d88:	0087b433          	sltu	s0,a5,s0
80000d8c:	009404b3          	add	s1,s0,s1
80000d90:	00078413          	mv	s0,a5
80000d94:	f85ff06f          	j	80000d18 <rtc_test+0x3c>

80000d98 <main>:
80000d98:	fe010113          	addi	sp,sp,-32
80000d9c:	00112e23          	sw	ra,28(sp)
80000da0:	00812c23          	sw	s0,24(sp)
80000da4:	00912a23          	sw	s1,20(sp)
80000da8:	01212823          	sw	s2,16(sp)
80000dac:	01312623          	sw	s3,12(sp)
80000db0:	00054783          	lbu	a5,0(a0)
80000db4:	01500713          	li	a4,21
80000db8:	f9f78793          	addi	a5,a5,-97 # f9f <_entry_offset+0xf9f>
80000dbc:	0ff7f793          	zext.b	a5,a5
80000dc0:	00f76e63          	bltu	a4,a5,80000ddc <main+0x44>
80000dc4:	80002737          	lui	a4,0x80002
80000dc8:	00279793          	slli	a5,a5,0x2
80000dcc:	2f870713          	addi	a4,a4,760 # 800022f8 <_end+0xfff652f8>
80000dd0:	00e787b3          	add	a5,a5,a4
80000dd4:	0007a783          	lw	a5,0(a5)
80000dd8:	00078067          	jr	a5
80000ddc:	80002537          	lui	a0,0x80002
80000de0:	2d050513          	addi	a0,a0,720 # 800022d0 <_end+0xfff652d0>
80000de4:	800024b7          	lui	s1,0x80002
80000de8:	6d4000ef          	jal	ra,800014bc <printf>
80000dec:	41048493          	addi	s1,s1,1040 # 80002410 <_end+0xfff65410>
80000df0:	00000413          	li	s0,0
80000df4:	10000913          	li	s2,256
80000df8:	800029b7          	lui	s3,0x80002
80000dfc:	00140413          	addi	s0,s0,1
80000e00:	03240c63          	beq	s0,s2,80000e38 <main+0xa0>
80000e04:	0004a603          	lw	a2,0(s1)
80000e08:	00060863          	beqz	a2,80000e18 <main+0x80>
80000e0c:	00040593          	mv	a1,s0
80000e10:	2ec98513          	addi	a0,s3,748 # 800022ec <_end+0xfff652ec>
80000e14:	6a8000ef          	jal	ra,800014bc <printf>
80000e18:	00448493          	addi	s1,s1,4
80000e1c:	fe1ff06f          	j	80000dfc <main+0x64>
80000e20:	800017b7          	lui	a5,0x80001
80000e24:	80095737          	lui	a4,0x80095
80000e28:	bb078793          	addi	a5,a5,-1104 # 80000bb0 <_end+0xfff63bb0>
80000e2c:	c0f72623          	sw	a5,-1012(a4) # 80094c0c <_end+0xffff7c0c>
80000e30:	1fc000ef          	jal	ra,8000102c <ioe_init>
80000e34:	d7dff0ef          	jal	ra,80000bb0 <audio_test>
80000e38:	01c12083          	lw	ra,28(sp)
80000e3c:	01812403          	lw	s0,24(sp)
80000e40:	01412483          	lw	s1,20(sp)
80000e44:	01012903          	lw	s2,16(sp)
80000e48:	00c12983          	lw	s3,12(sp)
80000e4c:	00000513          	li	a0,0
80000e50:	02010113          	addi	sp,sp,32
80000e54:	00008067          	ret
80000e58:	800007b7          	lui	a5,0x80000
80000e5c:	80095737          	lui	a4,0x80095
80000e60:	7d478793          	addi	a5,a5,2004 # 800007d4 <_end+0xfff637d4>
80000e64:	c0f72623          	sw	a5,-1012(a4) # 80094c0c <_end+0xffff7c0c>
80000e68:	1c4000ef          	jal	ra,8000102c <ioe_init>
80000e6c:	969ff0ef          	jal	ra,800007d4 <devscan>
80000e70:	fc9ff06f          	j	80000e38 <main+0xa0>
80000e74:	800017b7          	lui	a5,0x80001
80000e78:	80095737          	lui	a4,0x80095
80000e7c:	a4078793          	addi	a5,a5,-1472 # 80000a40 <_end+0xfff63a40>
80000e80:	c0f72623          	sw	a5,-1012(a4) # 80094c0c <_end+0xffff7c0c>
80000e84:	bbdff0ef          	jal	ra,80000a40 <hello>
80000e88:	fb1ff06f          	j	80000e38 <main+0xa0>
80000e8c:	800007b7          	lui	a5,0x80000
80000e90:	80095737          	lui	a4,0x80095
80000e94:	0a478793          	addi	a5,a5,164 # 800000a4 <_end+0xfff630a4>
80000e98:	c0f72623          	sw	a5,-1012(a4) # 80094c0c <_end+0xffff7c0c>
80000e9c:	190000ef          	jal	ra,8000102c <ioe_init>
80000ea0:	80000537          	lui	a0,0x80000
80000ea4:	01050513          	addi	a0,a0,16 # 80000010 <_end+0xfff63010>
80000ea8:	3b8000ef          	jal	ra,80001260 <cte_init>
80000eac:	9f8ff0ef          	jal	ra,800000a4 <hello_intr>
80000eb0:	f89ff06f          	j	80000e38 <main+0xa0>
80000eb4:	800017b7          	lui	a5,0x80001
80000eb8:	80095737          	lui	a4,0x80095
80000ebc:	a9878793          	addi	a5,a5,-1384 # 80000a98 <_end+0xfff63a98>
80000ec0:	c0f72623          	sw	a5,-1012(a4) # 80094c0c <_end+0xffff7c0c>
80000ec4:	168000ef          	jal	ra,8000102c <ioe_init>
80000ec8:	bd1ff0ef          	jal	ra,80000a98 <keyboard_test>
80000ecc:	f6dff06f          	j	80000e38 <main+0xa0>
80000ed0:	80001537          	lui	a0,0x80001
80000ed4:	b8c50713          	addi	a4,a0,-1140 # 80000b8c <_end+0xfff63b8c>
80000ed8:	800957b7          	lui	a5,0x80095
80000edc:	b8c50513          	addi	a0,a0,-1140
80000ee0:	c0e7a623          	sw	a4,-1012(a5) # 80094c0c <_end+0xffff7c0c>
80000ee4:	2a0000ef          	jal	ra,80001184 <mpe_init>
80000ee8:	ca5ff0ef          	jal	ra,80000b8c <mp_print>
80000eec:	f4dff06f          	j	80000e38 <main+0xa0>
80000ef0:	80000537          	lui	a0,0x80000
80000ef4:	800007b7          	lui	a5,0x80000
80000ef8:	80095737          	lui	a4,0x80095
80000efc:	67078793          	addi	a5,a5,1648 # 80000670 <_end+0xfff63670>
80000f00:	52450513          	addi	a0,a0,1316 # 80000524 <_end+0xfff63524>
80000f04:	c0f72623          	sw	a5,-1012(a4) # 80094c0c <_end+0xffff7c0c>
80000f08:	358000ef          	jal	ra,80001260 <cte_init>
80000f0c:	800005b7          	lui	a1,0x80000
80000f10:	80000537          	lui	a0,0x80000
80000f14:	52058593          	addi	a1,a1,1312 # 80000520 <_end+0xfff63520>
80000f18:	4dc50513          	addi	a0,a0,1244 # 800004dc <_end+0xfff634dc>
80000f1c:	4b0000ef          	jal	ra,800013cc <vme_init>
80000f20:	f50ff0ef          	jal	ra,80000670 <vm_test>
80000f24:	f15ff06f          	j	80000e38 <main+0xa0>
80000f28:	800017b7          	lui	a5,0x80001
80000f2c:	80095737          	lui	a4,0x80095
80000f30:	cdc78793          	addi	a5,a5,-804 # 80000cdc <_end+0xfff63cdc>
80000f34:	c0f72623          	sw	a5,-1012(a4) # 80094c0c <_end+0xffff7c0c>
80000f38:	0f4000ef          	jal	ra,8000102c <ioe_init>
80000f3c:	da1ff0ef          	jal	ra,80000cdc <rtc_test>
80000f40:	ef9ff06f          	j	80000e38 <main+0xa0>
80000f44:	800007b7          	lui	a5,0x80000
80000f48:	80095737          	lui	a4,0x80095
80000f4c:	43c78793          	addi	a5,a5,1084 # 8000043c <_end+0xfff6343c>
80000f50:	c0f72623          	sw	a5,-1012(a4) # 80094c0c <_end+0xffff7c0c>
80000f54:	0d8000ef          	jal	ra,8000102c <ioe_init>
80000f58:	ce4ff0ef          	jal	ra,8000043c <video_test>
80000f5c:	eddff06f          	j	80000e38 <main+0xa0>

80000f60 <putch>:
80000f60:	a00007b7          	lui	a5,0xa0000
80000f64:	3ea78c23          	sb	a0,1016(a5) # a00003f8 <_end+0x1ff633f8>
80000f68:	00008067          	ret

80000f6c <halt>:
80000f6c:	00050513          	mv	a0,a0
80000f70:	00100073          	ebreak
80000f74:	0000006f          	j	80000f74 <halt+0x8>

80000f78 <_trm_init>:
80000f78:	80003537          	lui	a0,0x80003
80000f7c:	ff010113          	addi	sp,sp,-16
80000f80:	92c50513          	addi	a0,a0,-1748 # 8000292c <_end+0xfff6592c>
80000f84:	00112623          	sw	ra,12(sp)
80000f88:	e11ff0ef          	jal	ra,80000d98 <main>
80000f8c:	00050513          	mv	a0,a0
80000f90:	00100073          	ebreak
80000f94:	0000006f          	j	80000f94 <_trm_init+0x1c>

80000f98 <__am_timer_config>:
80000f98:	00100793          	li	a5,1
80000f9c:	00f50023          	sb	a5,0(a0)
80000fa0:	00f500a3          	sb	a5,1(a0)
80000fa4:	00008067          	ret

80000fa8 <__am_input_config>:
80000fa8:	00100793          	li	a5,1
80000fac:	00f50023          	sb	a5,0(a0)
80000fb0:	00008067          	ret

80000fb4 <__am_uart_config>:
80000fb4:	00050023          	sb	zero,0(a0)
80000fb8:	00008067          	ret

80000fbc <__am_net_config>:
80000fbc:	00050023          	sb	zero,0(a0)
80000fc0:	00008067          	ret

80000fc4 <fail>:
80000fc4:	ff010113          	addi	sp,sp,-16
80000fc8:	00812423          	sw	s0,8(sp)
80000fcc:	80003437          	lui	s0,0x80003
80000fd0:	00112623          	sw	ra,12(sp)
80000fd4:	80c40413          	addi	s0,s0,-2036 # 8000280c <_end+0xfff6580c>
80000fd8:	04100513          	li	a0,65
80000fdc:	00140413          	addi	s0,s0,1
80000fe0:	f81ff0ef          	jal	ra,80000f60 <putch>
80000fe4:	00044503          	lbu	a0,0(s0)
80000fe8:	fe051ae3          	bnez	a0,80000fdc <fail+0x18>
80000fec:	80003437          	lui	s0,0x80003
80000ff0:	81840413          	addi	s0,s0,-2024 # 80002818 <_end+0xfff65818>
80000ff4:	06100513          	li	a0,97
80000ff8:	00140413          	addi	s0,s0,1
80000ffc:	f65ff0ef          	jal	ra,80000f60 <putch>
80001000:	00044503          	lbu	a0,0(s0)
80001004:	fe051ae3          	bnez	a0,80000ff8 <fail+0x34>
80001008:	80003437          	lui	s0,0x80003
8000100c:	83440413          	addi	s0,s0,-1996 # 80002834 <_end+0xfff65834>
80001010:	02000513          	li	a0,32
80001014:	00140413          	addi	s0,s0,1
80001018:	f49ff0ef          	jal	ra,80000f60 <putch>
8000101c:	00044503          	lbu	a0,0(s0)
80001020:	fe051ae3          	bnez	a0,80001014 <fail+0x50>
80001024:	00100513          	li	a0,1
80001028:	f45ff0ef          	jal	ra,80000f6c <halt>

8000102c <ioe_init>:
8000102c:	800107b7          	lui	a5,0x80010
80001030:	ff010113          	addi	sp,sp,-16
80001034:	75878793          	addi	a5,a5,1880 # 80010758 <_end+0xfff73758>
80001038:	80001637          	lui	a2,0x80001
8000103c:	00112623          	sw	ra,12(sp)
80001040:	20078693          	addi	a3,a5,512
80001044:	fc460613          	addi	a2,a2,-60 # 80000fc4 <_end+0xfff63fc4>
80001048:	00c0006f          	j	80001054 <ioe_init+0x28>
8000104c:	00478793          	addi	a5,a5,4
80001050:	00d78c63          	beq	a5,a3,80001068 <ioe_init+0x3c>
80001054:	0007a703          	lw	a4,0(a5)
80001058:	fe071ae3          	bnez	a4,8000104c <ioe_init+0x20>
8000105c:	00c7a023          	sw	a2,0(a5)
80001060:	00478793          	addi	a5,a5,4
80001064:	fed798e3          	bne	a5,a3,80001054 <ioe_init+0x28>
80001068:	0b0000ef          	jal	ra,80001118 <__am_gpu_init>
8000106c:	050000ef          	jal	ra,800010bc <__am_timer_init>
80001070:	0e8000ef          	jal	ra,80001158 <__am_audio_init>
80001074:	00c12083          	lw	ra,12(sp)
80001078:	00100513          	li	a0,1
8000107c:	01010113          	addi	sp,sp,16
80001080:	00008067          	ret

80001084 <ioe_read>:
80001084:	800107b7          	lui	a5,0x80010
80001088:	00251513          	slli	a0,a0,0x2
8000108c:	75878793          	addi	a5,a5,1880 # 80010758 <_end+0xfff73758>
80001090:	00a787b3          	add	a5,a5,a0
80001094:	0007a783          	lw	a5,0(a5)
80001098:	00058513          	mv	a0,a1
8000109c:	00078067          	jr	a5

800010a0 <ioe_write>:
800010a0:	800107b7          	lui	a5,0x80010
800010a4:	00251513          	slli	a0,a0,0x2
800010a8:	75878793          	addi	a5,a5,1880 # 80010758 <_end+0xfff73758>
800010ac:	00a787b3          	add	a5,a5,a0
800010b0:	0007a783          	lw	a5,0(a5)
800010b4:	00058513          	mv	a0,a1
800010b8:	00078067          	jr	a5

800010bc <__am_timer_init>:
800010bc:	00008067          	ret

800010c0 <__am_timer_uptime>:
800010c0:	a00007b7          	lui	a5,0xa0000
800010c4:	0487a703          	lw	a4,72(a5) # a0000048 <_end+0x1ff63048>
800010c8:	04c7a783          	lw	a5,76(a5)
800010cc:	00e52023          	sw	a4,0(a0)
800010d0:	00f52223          	sw	a5,4(a0)
800010d4:	00008067          	ret

800010d8 <__am_timer_rtc>:
800010d8:	00100793          	li	a5,1
800010dc:	00f52a23          	sw	a5,20(a0)
800010e0:	00200793          	li	a5,2
800010e4:	00f52823          	sw	a5,16(a0)
800010e8:	00300793          	li	a5,3
800010ec:	00f52623          	sw	a5,12(a0)
800010f0:	00400793          	li	a5,4
800010f4:	00f52423          	sw	a5,8(a0)
800010f8:	00500793          	li	a5,5
800010fc:	00f52223          	sw	a5,4(a0)
80001100:	00600793          	li	a5,6
80001104:	00f52023          	sw	a5,0(a0)
80001108:	00008067          	ret

8000110c <__am_input_keybrd>:
8000110c:	00050023          	sb	zero,0(a0)
80001110:	00052223          	sw	zero,4(a0)
80001114:	00008067          	ret

80001118 <__am_gpu_init>:
80001118:	00008067          	ret

8000111c <__am_gpu_config>:
8000111c:	00100793          	li	a5,1
80001120:	00f51023          	sh	a5,0(a0)
80001124:	00052223          	sw	zero,4(a0)
80001128:	00052423          	sw	zero,8(a0)
8000112c:	00052623          	sw	zero,12(a0)
80001130:	00008067          	ret

80001134 <__am_gpu_fbdraw>:
80001134:	01454783          	lbu	a5,20(a0)
80001138:	00078863          	beqz	a5,80001148 <__am_gpu_fbdraw+0x14>
8000113c:	a00007b7          	lui	a5,0xa0000
80001140:	00100713          	li	a4,1
80001144:	10e7a223          	sw	a4,260(a5) # a0000104 <_end+0x1ff63104>
80001148:	00008067          	ret

8000114c <__am_gpu_status>:
8000114c:	00100793          	li	a5,1
80001150:	00f50023          	sb	a5,0(a0)
80001154:	00008067          	ret

80001158 <__am_audio_init>:
80001158:	00008067          	ret

8000115c <__am_audio_config>:
8000115c:	00050023          	sb	zero,0(a0)
80001160:	00008067          	ret

80001164 <__am_audio_ctrl>:
80001164:	00008067          	ret

80001168 <__am_audio_status>:
80001168:	00052023          	sw	zero,0(a0)
8000116c:	00008067          	ret

80001170 <__am_audio_play>:
80001170:	00008067          	ret

80001174 <__am_disk_config>:
80001174:	00050023          	sb	zero,0(a0)
80001178:	00008067          	ret

8000117c <__am_disk_status>:
8000117c:	00008067          	ret

80001180 <__am_disk_blkio>:
80001180:	00008067          	ret

80001184 <mpe_init>:
80001184:	ff010113          	addi	sp,sp,-16
80001188:	00812423          	sw	s0,8(sp)
8000118c:	00112623          	sw	ra,12(sp)
80001190:	000500e7          	jalr	a0
80001194:	80003437          	lui	s0,0x80003
80001198:	80c40413          	addi	s0,s0,-2036 # 8000280c <_end+0xfff6580c>
8000119c:	04100513          	li	a0,65
800011a0:	00140413          	addi	s0,s0,1
800011a4:	dbdff0ef          	jal	ra,80000f60 <putch>
800011a8:	00044503          	lbu	a0,0(s0)
800011ac:	fe051ae3          	bnez	a0,800011a0 <mpe_init+0x1c>
800011b0:	80003437          	lui	s0,0x80003
800011b4:	88840413          	addi	s0,s0,-1912 # 80002888 <_end+0xfff65888>
800011b8:	04d00513          	li	a0,77
800011bc:	00140413          	addi	s0,s0,1
800011c0:	da1ff0ef          	jal	ra,80000f60 <putch>
800011c4:	00044503          	lbu	a0,0(s0)
800011c8:	fe051ae3          	bnez	a0,800011bc <mpe_init+0x38>
800011cc:	80003437          	lui	s0,0x80003
800011d0:	89c40413          	addi	s0,s0,-1892 # 8000289c <_end+0xfff6589c>
800011d4:	02000513          	li	a0,32
800011d8:	00140413          	addi	s0,s0,1
800011dc:	d85ff0ef          	jal	ra,80000f60 <putch>
800011e0:	00044503          	lbu	a0,0(s0)
800011e4:	fe051ae3          	bnez	a0,800011d8 <mpe_init+0x54>
800011e8:	00100513          	li	a0,1
800011ec:	d81ff0ef          	jal	ra,80000f6c <halt>

800011f0 <cpu_current>:
800011f0:	00000513          	li	a0,0
800011f4:	00008067          	ret

800011f8 <__am_irq_handle>:
800011f8:	800957b7          	lui	a5,0x80095
800011fc:	c107a783          	lw	a5,-1008(a5) # 80094c10 <_end+0xffff7c10>
80001200:	00050593          	mv	a1,a0
80001204:	02078c63          	beqz	a5,8000123c <__am_irq_handle+0x44>
80001208:	fd010113          	addi	sp,sp,-48
8000120c:	00400713          	li	a4,4
80001210:	02112623          	sw	ra,44(sp)
80001214:	00e12023          	sw	a4,0(sp)
80001218:	00012223          	sw	zero,4(sp)
8000121c:	00012423          	sw	zero,8(sp)
80001220:	00012623          	sw	zero,12(sp)
80001224:	00010513          	mv	a0,sp
80001228:	000780e7          	jalr	a5
8000122c:	00050a63          	beqz	a0,80001240 <__am_irq_handle+0x48>
80001230:	02c12083          	lw	ra,44(sp)
80001234:	03010113          	addi	sp,sp,48
80001238:	00008067          	ret
8000123c:	00008067          	ret
80001240:	800035b7          	lui	a1,0x80003
80001244:	80002537          	lui	a0,0x80002
80001248:	00f00613          	li	a2,15
8000124c:	8e858593          	addi	a1,a1,-1816 # 800028e8 <_end+0xfff658e8>
80001250:	cd050513          	addi	a0,a0,-816 # 80001cd0 <_end+0xfff64cd0>
80001254:	268000ef          	jal	ra,800014bc <printf>
80001258:	00100513          	li	a0,1
8000125c:	d11ff0ef          	jal	ra,80000f6c <halt>

80001260 <cte_init>:
80001260:	800017b7          	lui	a5,0x80001
80001264:	29078793          	addi	a5,a5,656 # 80001290 <_end+0xfff64290>
80001268:	30579073          	csrw	mtvec,a5
8000126c:	800957b7          	lui	a5,0x80095
80001270:	c0a7a823          	sw	a0,-1008(a5) # 80094c10 <_end+0xffff7c10>
80001274:	00100513          	li	a0,1
80001278:	00008067          	ret

8000127c <yield>:
8000127c:	fff00893          	li	a7,-1
80001280:	00000073          	ecall
80001284:	00008067          	ret

80001288 <iset>:
80001288:	00008067          	ret
8000128c:	0000                	.2byte	0x0
	...

80001290 <__am_asm_trap>:
80001290:	f7010113          	addi	sp,sp,-144
80001294:	00112223          	sw	ra,4(sp)
80001298:	00312623          	sw	gp,12(sp)
8000129c:	00412823          	sw	tp,16(sp)
800012a0:	00512a23          	sw	t0,20(sp)
800012a4:	00612c23          	sw	t1,24(sp)
800012a8:	00712e23          	sw	t2,28(sp)
800012ac:	02812023          	sw	s0,32(sp)
800012b0:	02912223          	sw	s1,36(sp)
800012b4:	02a12423          	sw	a0,40(sp)
800012b8:	02b12623          	sw	a1,44(sp)
800012bc:	02c12823          	sw	a2,48(sp)
800012c0:	02d12a23          	sw	a3,52(sp)
800012c4:	02e12c23          	sw	a4,56(sp)
800012c8:	02f12e23          	sw	a5,60(sp)
800012cc:	05012023          	sw	a6,64(sp)
800012d0:	05112223          	sw	a7,68(sp)
800012d4:	05212423          	sw	s2,72(sp)
800012d8:	05312623          	sw	s3,76(sp)
800012dc:	05412823          	sw	s4,80(sp)
800012e0:	05512a23          	sw	s5,84(sp)
800012e4:	05612c23          	sw	s6,88(sp)
800012e8:	05712e23          	sw	s7,92(sp)
800012ec:	07812023          	sw	s8,96(sp)
800012f0:	07912223          	sw	s9,100(sp)
800012f4:	07a12423          	sw	s10,104(sp)
800012f8:	07b12623          	sw	s11,108(sp)
800012fc:	07c12823          	sw	t3,112(sp)
80001300:	07d12a23          	sw	t4,116(sp)
80001304:	07e12c23          	sw	t5,120(sp)
80001308:	07f12e23          	sw	t6,124(sp)
8000130c:	342022f3          	csrr	t0,mcause
80001310:	30002373          	csrr	t1,mstatus
80001314:	341023f3          	csrr	t2,mepc
80001318:	08512023          	sw	t0,128(sp)
8000131c:	08612223          	sw	t1,132(sp)
80001320:	08712423          	sw	t2,136(sp)
80001324:	00020537          	lui	a0,0x20
80001328:	00a36333          	or	t1,t1,a0
8000132c:	30031073          	csrw	mstatus,t1
80001330:	00010513          	mv	a0,sp
80001334:	ec5ff0ef          	jal	ra,800011f8 <__am_irq_handle>
80001338:	08412303          	lw	t1,132(sp)
8000133c:	08812383          	lw	t2,136(sp)
80001340:	30031073          	csrw	mstatus,t1
80001344:	34139073          	csrw	mepc,t2
80001348:	00412083          	lw	ra,4(sp)
8000134c:	00c12183          	lw	gp,12(sp)
80001350:	01012203          	lw	tp,16(sp)
80001354:	01412283          	lw	t0,20(sp)
80001358:	01812303          	lw	t1,24(sp)
8000135c:	01c12383          	lw	t2,28(sp)
80001360:	02012403          	lw	s0,32(sp)
80001364:	02412483          	lw	s1,36(sp)
80001368:	02812503          	lw	a0,40(sp)
8000136c:	02c12583          	lw	a1,44(sp)
80001370:	03012603          	lw	a2,48(sp)
80001374:	03412683          	lw	a3,52(sp)
80001378:	03812703          	lw	a4,56(sp)
8000137c:	03c12783          	lw	a5,60(sp)
80001380:	04012803          	lw	a6,64(sp)
80001384:	04412883          	lw	a7,68(sp)
80001388:	04812903          	lw	s2,72(sp)
8000138c:	04c12983          	lw	s3,76(sp)
80001390:	05012a03          	lw	s4,80(sp)
80001394:	05412a83          	lw	s5,84(sp)
80001398:	05812b03          	lw	s6,88(sp)
8000139c:	05c12b83          	lw	s7,92(sp)
800013a0:	06012c03          	lw	s8,96(sp)
800013a4:	06412c83          	lw	s9,100(sp)
800013a8:	06812d03          	lw	s10,104(sp)
800013ac:	06c12d83          	lw	s11,108(sp)
800013b0:	07012e03          	lw	t3,112(sp)
800013b4:	07412e83          	lw	t4,116(sp)
800013b8:	07812f03          	lw	t5,120(sp)
800013bc:	07c12f83          	lw	t6,124(sp)
800013c0:	09010113          	addi	sp,sp,144
800013c4:	30200073          	mret
800013c8:	0000                	.2byte	0x0
	...

800013cc <vme_init>:
800013cc:	ff010113          	addi	sp,sp,-16
800013d0:	00112623          	sw	ra,12(sp)
800013d4:	00050793          	mv	a5,a0
800013d8:	80095737          	lui	a4,0x80095
800013dc:	00001537          	lui	a0,0x1
800013e0:	c0f72a23          	sw	a5,-1004(a4) # 80094c14 <_end+0xffff7c14>
800013e4:	000780e7          	jalr	a5
800013e8:	80095737          	lui	a4,0x80095
800013ec:	00c55793          	srli	a5,a0,0xc
800013f0:	b6a72c23          	sw	a0,-1160(a4) # 80094b78 <_end+0xffff7b78>
800013f4:	80000737          	lui	a4,0x80000
800013f8:	00e7e7b3          	or	a5,a5,a4
800013fc:	18079073          	csrw	satp,a5
80001400:	00c12083          	lw	ra,12(sp)
80001404:	800957b7          	lui	a5,0x80095
80001408:	00100713          	li	a4,1
8000140c:	c0e7ac23          	sw	a4,-1000(a5) # 80094c18 <_end+0xffff7c18>
80001410:	00100513          	li	a0,1
80001414:	01010113          	addi	sp,sp,16
80001418:	00008067          	ret

8000141c <protect>:
8000141c:	800957b7          	lui	a5,0x80095
80001420:	c147a783          	lw	a5,-1004(a5) # 80094c14 <_end+0xffff7c14>
80001424:	ff010113          	addi	sp,sp,-16
80001428:	00812423          	sw	s0,8(sp)
8000142c:	00112623          	sw	ra,12(sp)
80001430:	00050413          	mv	s0,a0
80001434:	00001537          	lui	a0,0x1
80001438:	000780e7          	jalr	a5
8000143c:	800957b7          	lui	a5,0x80095
80001440:	b787a583          	lw	a1,-1160(a5) # 80094b78 <_end+0xffff7b78>
80001444:	400007b7          	lui	a5,0x40000
80001448:	00f42223          	sw	a5,4(s0)
8000144c:	800007b7          	lui	a5,0x80000
80001450:	00f42423          	sw	a5,8(s0)
80001454:	000017b7          	lui	a5,0x1
80001458:	00a42623          	sw	a0,12(s0)
8000145c:	00f42023          	sw	a5,0(s0)
80001460:	00812403          	lw	s0,8(sp)
80001464:	00c12083          	lw	ra,12(sp)
80001468:	00001637          	lui	a2,0x1
8000146c:	01010113          	addi	sp,sp,16
80001470:	3800006f          	j	800017f0 <memcpy>

80001474 <map>:
80001474:	00008067          	ret

80001478 <ucontext>:
80001478:	ff010113          	addi	sp,sp,-16
8000147c:	00000513          	li	a0,0
80001480:	01010113          	addi	sp,sp,16
80001484:	00008067          	ret

80001488 <rand>:
80001488:	80011737          	lui	a4,0x80011
8000148c:	95870713          	addi	a4,a4,-1704 # 80010958 <_end+0xfff73958>
80001490:	00072783          	lw	a5,0(a4)
80001494:	41c656b7          	lui	a3,0x41c65
80001498:	e6d68693          	addi	a3,a3,-403 # 41c64e6d <_entry_offset+0x41c64e6d>
8000149c:	02d787b3          	mul	a5,a5,a3
800014a0:	000036b7          	lui	a3,0x3
800014a4:	03968693          	addi	a3,a3,57 # 3039 <_entry_offset+0x3039>
800014a8:	00d787b3          	add	a5,a5,a3
800014ac:	00179513          	slli	a0,a5,0x1
800014b0:	00f72023          	sw	a5,0(a4)
800014b4:	01155513          	srli	a0,a0,0x11
800014b8:	00008067          	ret

800014bc <printf>:
800014bc:	fa010113          	addi	sp,sp,-96
800014c0:	02812c23          	sw	s0,56(sp)
800014c4:	80095437          	lui	s0,0x80095
800014c8:	02912a23          	sw	s1,52(sp)
800014cc:	04b12223          	sw	a1,68(sp)
800014d0:	00050493          	mv	s1,a0
800014d4:	04c12423          	sw	a2,72(sp)
800014d8:	b7c40513          	addi	a0,s0,-1156 # 80094b7c <_end+0xffff7b7c>
800014dc:	00000593          	li	a1,0
800014e0:	08000613          	li	a2,128
800014e4:	04e12823          	sw	a4,80(sp)
800014e8:	04f12a23          	sw	a5,84(sp)
800014ec:	02112e23          	sw	ra,60(sp)
800014f0:	03212823          	sw	s2,48(sp)
800014f4:	03312623          	sw	s3,44(sp)
800014f8:	03412423          	sw	s4,40(sp)
800014fc:	03512223          	sw	s5,36(sp)
80001500:	03612023          	sw	s6,32(sp)
80001504:	01712e23          	sw	s7,28(sp)
80001508:	01812c23          	sw	s8,24(sp)
8000150c:	01912a23          	sw	s9,20(sp)
80001510:	01a12823          	sw	s10,16(sp)
80001514:	04d12623          	sw	a3,76(sp)
80001518:	05012c23          	sw	a6,88(sp)
8000151c:	05112e23          	sw	a7,92(sp)
80001520:	2b0000ef          	jal	ra,800017d0 <memset>
80001524:	0004c783          	lbu	a5,0(s1)
80001528:	04410713          	addi	a4,sp,68
8000152c:	00e12623          	sw	a4,12(sp)
80001530:	b7c40413          	addi	s0,s0,-1156
80001534:	02078e63          	beqz	a5,80001570 <printf+0xb4>
80001538:	00000913          	li	s2,0
8000153c:	02500993          	li	s3,37
80001540:	07300a93          	li	s5,115
80001544:	06400b13          	li	s6,100
80001548:	00900c13          	li	s8,9
8000154c:	00a00a13          	li	s4,10
80001550:	fff40c93          	addi	s9,s0,-1
80001554:	07378a63          	beq	a5,s3,800015c8 <printf+0x10c>
80001558:	01240733          	add	a4,s0,s2
8000155c:	00f70023          	sb	a5,0(a4)
80001560:	00190913          	addi	s2,s2,1
80001564:	00148493          	addi	s1,s1,1
80001568:	0004c783          	lbu	a5,0(s1)
8000156c:	fe0794e3          	bnez	a5,80001554 <printf+0x98>
80001570:	07f40493          	addi	s1,s0,127
80001574:	00c0006f          	j	80001580 <printf+0xc4>
80001578:	9e9ff0ef          	jal	ra,80000f60 <putch>
8000157c:	00848863          	beq	s1,s0,8000158c <printf+0xd0>
80001580:	00044503          	lbu	a0,0(s0)
80001584:	00140413          	addi	s0,s0,1
80001588:	fe0518e3          	bnez	a0,80001578 <printf+0xbc>
8000158c:	03c12083          	lw	ra,60(sp)
80001590:	03812403          	lw	s0,56(sp)
80001594:	03412483          	lw	s1,52(sp)
80001598:	03012903          	lw	s2,48(sp)
8000159c:	02c12983          	lw	s3,44(sp)
800015a0:	02812a03          	lw	s4,40(sp)
800015a4:	02412a83          	lw	s5,36(sp)
800015a8:	02012b03          	lw	s6,32(sp)
800015ac:	01c12b83          	lw	s7,28(sp)
800015b0:	01812c03          	lw	s8,24(sp)
800015b4:	01412c83          	lw	s9,20(sp)
800015b8:	01012d03          	lw	s10,16(sp)
800015bc:	00000513          	li	a0,0
800015c0:	06010113          	addi	sp,sp,96
800015c4:	00008067          	ret
800015c8:	0014c783          	lbu	a5,1(s1)
800015cc:	01578863          	beq	a5,s5,800015dc <printf+0x120>
800015d0:	05678263          	beq	a5,s6,80001614 <printf+0x158>
800015d4:	00248493          	addi	s1,s1,2
800015d8:	f91ff06f          	j	80001568 <printf+0xac>
800015dc:	00c12783          	lw	a5,12(sp)
800015e0:	00248493          	addi	s1,s1,2
800015e4:	0007ad03          	lw	s10,0(a5) # 1000 <_entry_offset+0x1000>
800015e8:	00478793          	addi	a5,a5,4
800015ec:	00f12623          	sw	a5,12(sp)
800015f0:	000d0513          	mv	a0,s10
800015f4:	098000ef          	jal	ra,8000168c <strlen>
800015f8:	00050b93          	mv	s7,a0
800015fc:	000b8613          	mv	a2,s7
80001600:	01240533          	add	a0,s0,s2
80001604:	000d0593          	mv	a1,s10
80001608:	0ac000ef          	jal	ra,800016b4 <strncpy>
8000160c:	01790933          	add	s2,s2,s7
80001610:	f59ff06f          	j	80001568 <printf+0xac>
80001614:	00c12783          	lw	a5,12(sp)
80001618:	0007a683          	lw	a3,0(a5)
8000161c:	00478793          	addi	a5,a5,4
80001620:	00f12623          	sw	a5,12(sp)
80001624:	04dc5663          	bge	s8,a3,80001670 <printf+0x1b4>
80001628:	00068713          	mv	a4,a3
8000162c:	00000793          	li	a5,0
80001630:	03474733          	div	a4,a4,s4
80001634:	00078613          	mv	a2,a5
80001638:	00178793          	addi	a5,a5,1
8000163c:	fe071ae3          	bnez	a4,80001630 <printf+0x174>
80001640:	00f90933          	add	s2,s2,a5
80001644:	40cc8633          	sub	a2,s9,a2
80001648:	012407b3          	add	a5,s0,s2
8000164c:	01260633          	add	a2,a2,s2
80001650:	0346e733          	rem	a4,a3,s4
80001654:	fff78793          	addi	a5,a5,-1
80001658:	03070713          	addi	a4,a4,48
8000165c:	00e78023          	sb	a4,0(a5)
80001660:	0346c6b3          	div	a3,a3,s4
80001664:	fec796e3          	bne	a5,a2,80001650 <printf+0x194>
80001668:	00248493          	addi	s1,s1,2
8000166c:	efdff06f          	j	80001568 <printf+0xac>
80001670:	0346e7b3          	rem	a5,a3,s4
80001674:	01240733          	add	a4,s0,s2
80001678:	00248493          	addi	s1,s1,2
8000167c:	00190913          	addi	s2,s2,1
80001680:	03078793          	addi	a5,a5,48
80001684:	00f70023          	sb	a5,0(a4)
80001688:	ee1ff06f          	j	80001568 <printf+0xac>

8000168c <strlen>:
8000168c:	00054783          	lbu	a5,0(a0) # 1000 <_entry_offset+0x1000>
80001690:	00050713          	mv	a4,a0
80001694:	00000513          	li	a0,0
80001698:	00078c63          	beqz	a5,800016b0 <strlen+0x24>
8000169c:	00150513          	addi	a0,a0,1
800016a0:	00a707b3          	add	a5,a4,a0
800016a4:	0007c783          	lbu	a5,0(a5)
800016a8:	fe079ae3          	bnez	a5,8000169c <strlen+0x10>
800016ac:	00008067          	ret
800016b0:	00008067          	ret

800016b4 <strncpy>:
800016b4:	00000793          	li	a5,0
800016b8:	00061a63          	bnez	a2,800016cc <strncpy+0x18>
800016bc:	03c0006f          	j	800016f8 <strncpy+0x44>
800016c0:	00e68023          	sb	a4,0(a3)
800016c4:	00178793          	addi	a5,a5,1
800016c8:	02f60663          	beq	a2,a5,800016f4 <strncpy+0x40>
800016cc:	00f58733          	add	a4,a1,a5
800016d0:	00074703          	lbu	a4,0(a4)
800016d4:	00f506b3          	add	a3,a0,a5
800016d8:	fe0714e3          	bnez	a4,800016c0 <strncpy+0xc>
800016dc:	00c7fc63          	bgeu	a5,a2,800016f4 <strncpy+0x40>
800016e0:	00068793          	mv	a5,a3
800016e4:	00c50633          	add	a2,a0,a2
800016e8:	00078023          	sb	zero,0(a5)
800016ec:	00178793          	addi	a5,a5,1
800016f0:	fec79ce3          	bne	a5,a2,800016e8 <strncpy+0x34>
800016f4:	00008067          	ret
800016f8:	00008067          	ret

800016fc <strcmp>:
800016fc:	00054683          	lbu	a3,0(a0)
80001700:	0005c703          	lbu	a4,0(a1)
80001704:	00050793          	mv	a5,a0
80001708:	02068c63          	beqz	a3,80001740 <strcmp+0x44>
8000170c:	00100513          	li	a0,1
80001710:	02070663          	beqz	a4,8000173c <strcmp+0x40>
80001714:	00178793          	addi	a5,a5,1
80001718:	00158593          	addi	a1,a1,1
8000171c:	02d71863          	bne	a4,a3,8000174c <strcmp+0x50>
80001720:	0007c683          	lbu	a3,0(a5)
80001724:	0005c703          	lbu	a4,0(a1)
80001728:	00178793          	addi	a5,a5,1
8000172c:	00068a63          	beqz	a3,80001740 <strcmp+0x44>
80001730:	00158593          	addi	a1,a1,1
80001734:	fe0714e3          	bnez	a4,8000171c <strcmp+0x20>
80001738:	00100513          	li	a0,1
8000173c:	00008067          	ret
80001740:	00e03733          	snez	a4,a4
80001744:	40e00533          	neg	a0,a4
80001748:	00008067          	ret
8000174c:	00100513          	li	a0,1
80001750:	fee6f6e3          	bgeu	a3,a4,8000173c <strcmp+0x40>
80001754:	fff00513          	li	a0,-1
80001758:	00008067          	ret

8000175c <strncmp>:
8000175c:	00054683          	lbu	a3,0(a0)
80001760:	0005c703          	lbu	a4,0(a1)
80001764:	00050793          	mv	a5,a0
80001768:	02068e63          	beqz	a3,800017a4 <strncmp+0x48>
8000176c:	00100513          	li	a0,1
80001770:	00000813          	li	a6,0
80001774:	02070663          	beqz	a4,800017a0 <strncmp+0x44>
80001778:	02d71c63          	bne	a4,a3,800017b0 <strncmp+0x54>
8000177c:	04c80663          	beq	a6,a2,800017c8 <strncmp+0x6c>
80001780:	00180813          	addi	a6,a6,1
80001784:	01078733          	add	a4,a5,a6
80001788:	00074683          	lbu	a3,0(a4)
8000178c:	01058733          	add	a4,a1,a6
80001790:	00074703          	lbu	a4,0(a4)
80001794:	00068863          	beqz	a3,800017a4 <strncmp+0x48>
80001798:	fe0710e3          	bnez	a4,80001778 <strncmp+0x1c>
8000179c:	00100513          	li	a0,1
800017a0:	00008067          	ret
800017a4:	00e03733          	snez	a4,a4
800017a8:	40e00533          	neg	a0,a4
800017ac:	00008067          	ret
800017b0:	00000513          	li	a0,0
800017b4:	fec806e3          	beq	a6,a2,800017a0 <strncmp+0x44>
800017b8:	00100513          	li	a0,1
800017bc:	fee6f2e3          	bgeu	a3,a4,800017a0 <strncmp+0x44>
800017c0:	fff00513          	li	a0,-1
800017c4:	00008067          	ret
800017c8:	00000513          	li	a0,0
800017cc:	00008067          	ret

800017d0 <memset>:
800017d0:	0ff5f593          	zext.b	a1,a1
800017d4:	00050793          	mv	a5,a0
800017d8:	00a60733          	add	a4,a2,a0
800017dc:	00060863          	beqz	a2,800017ec <memset+0x1c>
800017e0:	00b78023          	sb	a1,0(a5)
800017e4:	00178793          	addi	a5,a5,1
800017e8:	fee79ce3          	bne	a5,a4,800017e0 <memset+0x10>
800017ec:	00008067          	ret

800017f0 <memcpy>:
800017f0:	02060063          	beqz	a2,80001810 <memcpy+0x20>
800017f4:	00050793          	mv	a5,a0
800017f8:	00c58633          	add	a2,a1,a2
800017fc:	0005c703          	lbu	a4,0(a1)
80001800:	00158593          	addi	a1,a1,1
80001804:	00178793          	addi	a5,a5,1
80001808:	fee78fa3          	sb	a4,-1(a5)
8000180c:	fec598e3          	bne	a1,a2,800017fc <memcpy+0xc>
80001810:	00008067          	ret

80001814 <__udivmoddi4>:
80001814:	fe010113          	addi	sp,sp,-32
80001818:	01212823          	sw	s2,16(sp)
8000181c:	01412423          	sw	s4,8(sp)
80001820:	01512223          	sw	s5,4(sp)
80001824:	01612023          	sw	s6,0(sp)
80001828:	00112e23          	sw	ra,28(sp)
8000182c:	00812c23          	sw	s0,24(sp)
80001830:	00912a23          	sw	s1,20(sp)
80001834:	01312623          	sw	s3,12(sp)
80001838:	00068a93          	mv	s5,a3
8000183c:	00050913          	mv	s2,a0
80001840:	00060b13          	mv	s6,a2
80001844:	00070a13          	mv	s4,a4
80001848:	04059463          	bnez	a1,80001890 <__udivmoddi4+0x7c>
8000184c:	18069863          	bnez	a3,800019dc <__udivmoddi4+0x1c8>
80001850:	00070863          	beqz	a4,80001860 <__udivmoddi4+0x4c>
80001854:	02c577b3          	remu	a5,a0,a2
80001858:	00072223          	sw	zero,4(a4)
8000185c:	00f72023          	sw	a5,0(a4)
80001860:	03695533          	divu	a0,s2,s6
80001864:	00000593          	li	a1,0
80001868:	01c12083          	lw	ra,28(sp)
8000186c:	01812403          	lw	s0,24(sp)
80001870:	01412483          	lw	s1,20(sp)
80001874:	01012903          	lw	s2,16(sp)
80001878:	00c12983          	lw	s3,12(sp)
8000187c:	00812a03          	lw	s4,8(sp)
80001880:	00412a83          	lw	s5,4(sp)
80001884:	00012b03          	lw	s6,0(sp)
80001888:	02010113          	addi	sp,sp,32
8000188c:	00008067          	ret
80001890:	00058993          	mv	s3,a1
80001894:	00058413          	mv	s0,a1
80001898:	0e061863          	bnez	a2,80001988 <__udivmoddi4+0x174>
8000189c:	1a068263          	beqz	a3,80001a40 <__udivmoddi4+0x22c>
800018a0:	20050463          	beqz	a0,80001aa8 <__udivmoddi4+0x294>
800018a4:	fff68793          	addi	a5,a3,-1
800018a8:	00d7f733          	and	a4,a5,a3
800018ac:	22070c63          	beqz	a4,80001ae4 <__udivmoddi4+0x2d0>
800018b0:	00068513          	mv	a0,a3
800018b4:	28c000ef          	jal	ra,80001b40 <__clzsi2>
800018b8:	00050493          	mv	s1,a0
800018bc:	00098513          	mv	a0,s3
800018c0:	280000ef          	jal	ra,80001b40 <__clzsi2>
800018c4:	40a48733          	sub	a4,s1,a0
800018c8:	01e00793          	li	a5,30
800018cc:	16e7ec63          	bltu	a5,a4,80001a44 <__udivmoddi4+0x230>
800018d0:	00170713          	addi	a4,a4,1
800018d4:	02000e93          	li	t4,32
800018d8:	40ee8eb3          	sub	t4,t4,a4
800018dc:	01d99633          	sll	a2,s3,t4
800018e0:	00e956b3          	srl	a3,s2,a4
800018e4:	00e9d7b3          	srl	a5,s3,a4
800018e8:	01d91eb3          	sll	t4,s2,t4
800018ec:	00d66433          	or	s0,a2,a3
800018f0:	00000493          	li	s1,0
800018f4:	00000313          	li	t1,0
800018f8:	01fed693          	srli	a3,t4,0x1f
800018fc:	00141813          	slli	a6,s0,0x1
80001900:	00d86833          	or	a6,a6,a3
80001904:	01f45413          	srli	s0,s0,0x1f
80001908:	00179793          	slli	a5,a5,0x1
8000190c:	0087e7b3          	or	a5,a5,s0
80001910:	410b0e33          	sub	t3,s6,a6
80001914:	01cb36b3          	sltu	a3,s6,t3
80001918:	40fa88b3          	sub	a7,s5,a5
8000191c:	40d888b3          	sub	a7,a7,a3
80001920:	001e3e13          	seqz	t3,t3
80001924:	41c888b3          	sub	a7,a7,t3
80001928:	41f8de13          	srai	t3,a7,0x1f
8000192c:	016e7433          	and	s0,t3,s6
80001930:	40880433          	sub	s0,a6,s0
80001934:	015e7e33          	and	t3,t3,s5
80001938:	01f4d693          	srli	a3,s1,0x1f
8000193c:	001e9e93          	slli	t4,t4,0x1
80001940:	00149493          	slli	s1,s1,0x1
80001944:	00883833          	sltu	a6,a6,s0
80001948:	41c787b3          	sub	a5,a5,t3
8000194c:	fff70713          	addi	a4,a4,-1
80001950:	0064e4b3          	or	s1,s1,t1
80001954:	00deeeb3          	or	t4,t4,a3
80001958:	01f8d313          	srli	t1,a7,0x1f
8000195c:	410787b3          	sub	a5,a5,a6
80001960:	f8071ce3          	bnez	a4,800018f8 <__udivmoddi4+0xe4>
80001964:	01f4d993          	srli	s3,s1,0x1f
80001968:	001e9e93          	slli	t4,t4,0x1
8000196c:	00149493          	slli	s1,s1,0x1
80001970:	0064e533          	or	a0,s1,t1
80001974:	01d9e5b3          	or	a1,s3,t4
80001978:	ee0a08e3          	beqz	s4,80001868 <__udivmoddi4+0x54>
8000197c:	008a2023          	sw	s0,0(s4)
80001980:	00fa2223          	sw	a5,4(s4)
80001984:	ee5ff06f          	j	80001868 <__udivmoddi4+0x54>
80001988:	06068663          	beqz	a3,800019f4 <__udivmoddi4+0x1e0>
8000198c:	00068513          	mv	a0,a3
80001990:	1b0000ef          	jal	ra,80001b40 <__clzsi2>
80001994:	00050493          	mv	s1,a0
80001998:	00098513          	mv	a0,s3
8000199c:	1a4000ef          	jal	ra,80001b40 <__clzsi2>
800019a0:	40a48733          	sub	a4,s1,a0
800019a4:	01f00793          	li	a5,31
800019a8:	08e7ee63          	bltu	a5,a4,80001a44 <__udivmoddi4+0x230>
800019ac:	00170713          	addi	a4,a4,1
800019b0:	02000793          	li	a5,32
800019b4:	00090e93          	mv	t4,s2
800019b8:	14f70863          	beq	a4,a5,80001b08 <__udivmoddi4+0x2f4>
800019bc:	40e786b3          	sub	a3,a5,a4
800019c0:	00e95633          	srl	a2,s2,a4
800019c4:	00d995b3          	sll	a1,s3,a3
800019c8:	00e9d7b3          	srl	a5,s3,a4
800019cc:	00d91eb3          	sll	t4,s2,a3
800019d0:	00c5e433          	or	s0,a1,a2
800019d4:	00000493          	li	s1,0
800019d8:	f1dff06f          	j	800018f4 <__udivmoddi4+0xe0>
800019dc:	06070663          	beqz	a4,80001a48 <__udivmoddi4+0x234>
800019e0:	00aa2023          	sw	a0,0(s4)
800019e4:	00072223          	sw	zero,4(a4)
800019e8:	00000513          	li	a0,0
800019ec:	00000593          	li	a1,0
800019f0:	e79ff06f          	j	80001868 <__udivmoddi4+0x54>
800019f4:	fff60793          	addi	a5,a2,-1 # fff <_entry_offset+0xfff>
800019f8:	00c7f733          	and	a4,a5,a2
800019fc:	04071c63          	bnez	a4,80001a54 <__udivmoddi4+0x240>
80001a00:	000a0863          	beqz	s4,80001a10 <__udivmoddi4+0x1fc>
80001a04:	00a7f7b3          	and	a5,a5,a0
80001a08:	00fa2023          	sw	a5,0(s4)
80001a0c:	000a2223          	sw	zero,4(s4)
80001a10:	00100793          	li	a5,1
80001a14:	0cfb0263          	beq	s6,a5,80001ad8 <__udivmoddi4+0x2c4>
80001a18:	000b0513          	mv	a0,s6
80001a1c:	1bc000ef          	jal	ra,80001bd8 <__ctzsi2>
80001a20:	02000713          	li	a4,32
80001a24:	40a70733          	sub	a4,a4,a0
80001a28:	00050793          	mv	a5,a0
80001a2c:	00e99733          	sll	a4,s3,a4
80001a30:	00a95933          	srl	s2,s2,a0
80001a34:	01276533          	or	a0,a4,s2
80001a38:	00f9d5b3          	srl	a1,s3,a5
80001a3c:	e2dff06f          	j	80001868 <__udivmoddi4+0x54>
80001a40:	00100073          	ebreak
80001a44:	080a1063          	bnez	s4,80001ac4 <__udivmoddi4+0x2b0>
80001a48:	00000513          	li	a0,0
80001a4c:	00000593          	li	a1,0
80001a50:	e19ff06f          	j	80001868 <__udivmoddi4+0x54>
80001a54:	00060513          	mv	a0,a2
80001a58:	00068493          	mv	s1,a3
80001a5c:	0e4000ef          	jal	ra,80001b40 <__clzsi2>
80001a60:	00050993          	mv	s3,a0
80001a64:	00040513          	mv	a0,s0
80001a68:	0d8000ef          	jal	ra,80001b40 <__clzsi2>
80001a6c:	40a98533          	sub	a0,s3,a0
80001a70:	02150713          	addi	a4,a0,33
80001a74:	02000693          	li	a3,32
80001a78:	00090e93          	mv	t4,s2
80001a7c:	00000793          	li	a5,0
80001a80:	e6d70ae3          	beq	a4,a3,800018f4 <__udivmoddi4+0xe0>
80001a84:	01f00613          	li	a2,31
80001a88:	08e66663          	bltu	a2,a4,80001b14 <__udivmoddi4+0x300>
80001a8c:	40e686b3          	sub	a3,a3,a4
80001a90:	00e95633          	srl	a2,s2,a4
80001a94:	00d415b3          	sll	a1,s0,a3
80001a98:	00e457b3          	srl	a5,s0,a4
80001a9c:	00d91eb3          	sll	t4,s2,a3
80001aa0:	00c5e433          	or	s0,a1,a2
80001aa4:	e51ff06f          	j	800018f4 <__udivmoddi4+0xe0>
80001aa8:	00070863          	beqz	a4,80001ab8 <__udivmoddi4+0x2a4>
80001aac:	02d5f7b3          	remu	a5,a1,a3
80001ab0:	00072023          	sw	zero,0(a4)
80001ab4:	00f72223          	sw	a5,4(a4)
80001ab8:	0359d533          	divu	a0,s3,s5
80001abc:	00000593          	li	a1,0
80001ac0:	da9ff06f          	j	80001868 <__udivmoddi4+0x54>
80001ac4:	012a2023          	sw	s2,0(s4)
80001ac8:	013a2223          	sw	s3,4(s4)
80001acc:	00000513          	li	a0,0
80001ad0:	00000593          	li	a1,0
80001ad4:	d95ff06f          	j	80001868 <__udivmoddi4+0x54>
80001ad8:	00090513          	mv	a0,s2
80001adc:	00098593          	mv	a1,s3
80001ae0:	d89ff06f          	j	80001868 <__udivmoddi4+0x54>
80001ae4:	000a0863          	beqz	s4,80001af4 <__udivmoddi4+0x2e0>
80001ae8:	00b7f7b3          	and	a5,a5,a1
80001aec:	00aa2023          	sw	a0,0(s4)
80001af0:	00fa2223          	sw	a5,4(s4)
80001af4:	000a8513          	mv	a0,s5
80001af8:	0e0000ef          	jal	ra,80001bd8 <__ctzsi2>
80001afc:	00a9d533          	srl	a0,s3,a0
80001b00:	00000593          	li	a1,0
80001b04:	d65ff06f          	j	80001868 <__udivmoddi4+0x54>
80001b08:	00000793          	li	a5,0
80001b0c:	00000493          	li	s1,0
80001b10:	de5ff06f          	j	800018f4 <__udivmoddi4+0xe0>
80001b14:	04000693          	li	a3,64
80001b18:	40e686b3          	sub	a3,a3,a4
80001b1c:	00150513          	addi	a0,a0,1
80001b20:	00d914b3          	sll	s1,s2,a3
80001b24:	00a95eb3          	srl	t4,s2,a0
80001b28:	00d416b3          	sll	a3,s0,a3
80001b2c:	01d6eeb3          	or	t4,a3,t4
80001b30:	00a45433          	srl	s0,s0,a0
80001b34:	dc1ff06f          	j	800018f4 <__udivmoddi4+0xe0>

80001b38 <__udivdi3>:
80001b38:	00000713          	li	a4,0
80001b3c:	cd9ff06f          	j	80001814 <__udivmoddi4>

80001b40 <__clzsi2>:
80001b40:	ffff05b7          	lui	a1,0xffff0
80001b44:	00b575b3          	and	a1,a0,a1
80001b48:	0015b593          	seqz	a1,a1
80001b4c:	00459593          	slli	a1,a1,0x4
80001b50:	01000793          	li	a5,16
80001b54:	40b787b3          	sub	a5,a5,a1
80001b58:	00010737          	lui	a4,0x10
80001b5c:	00f557b3          	srl	a5,a0,a5
80001b60:	f0070713          	addi	a4,a4,-256 # ff00 <_entry_offset+0xff00>
80001b64:	00e7f733          	and	a4,a5,a4
80001b68:	00173713          	seqz	a4,a4
80001b6c:	00371713          	slli	a4,a4,0x3
80001b70:	00800693          	li	a3,8
80001b74:	40e686b3          	sub	a3,a3,a4
80001b78:	00d7d7b3          	srl	a5,a5,a3
80001b7c:	0f07f613          	andi	a2,a5,240
80001b80:	00163613          	seqz	a2,a2
80001b84:	00261613          	slli	a2,a2,0x2
80001b88:	00400693          	li	a3,4
80001b8c:	40c686b3          	sub	a3,a3,a2
80001b90:	00d7d7b3          	srl	a5,a5,a3
80001b94:	00c7f693          	andi	a3,a5,12
80001b98:	0016b693          	seqz	a3,a3
80001b9c:	00169693          	slli	a3,a3,0x1
80001ba0:	00200813          	li	a6,2
80001ba4:	40d80533          	sub	a0,a6,a3
80001ba8:	00a7d7b3          	srl	a5,a5,a0
80001bac:	0017d513          	srli	a0,a5,0x1
80001bb0:	00154513          	xori	a0,a0,1
80001bb4:	00b70733          	add	a4,a4,a1
80001bb8:	00157513          	andi	a0,a0,1
80001bbc:	00e60633          	add	a2,a2,a4
80001bc0:	40f80833          	sub	a6,a6,a5
80001bc4:	40a00733          	neg	a4,a0
80001bc8:	01077733          	and	a4,a4,a6
80001bcc:	00c68533          	add	a0,a3,a2
80001bd0:	00a70533          	add	a0,a4,a0
80001bd4:	00008067          	ret

80001bd8 <__ctzsi2>:
80001bd8:	01051593          	slli	a1,a0,0x10
80001bdc:	0105d593          	srli	a1,a1,0x10
80001be0:	0015b593          	seqz	a1,a1
80001be4:	00459593          	slli	a1,a1,0x4
80001be8:	00b557b3          	srl	a5,a0,a1
80001bec:	0ff7f613          	zext.b	a2,a5
80001bf0:	00163613          	seqz	a2,a2
80001bf4:	00361613          	slli	a2,a2,0x3
80001bf8:	00c7d7b3          	srl	a5,a5,a2
80001bfc:	00f7f693          	andi	a3,a5,15
80001c00:	0016b693          	seqz	a3,a3
80001c04:	00269693          	slli	a3,a3,0x2
80001c08:	00d7d7b3          	srl	a5,a5,a3
80001c0c:	0037f713          	andi	a4,a5,3
80001c10:	00173713          	seqz	a4,a4
80001c14:	00171713          	slli	a4,a4,0x1
80001c18:	00e7d7b3          	srl	a5,a5,a4
80001c1c:	0017d513          	srli	a0,a5,0x1
80001c20:	00b60633          	add	a2,a2,a1
80001c24:	0017f793          	andi	a5,a5,1
80001c28:	00157593          	andi	a1,a0,1
80001c2c:	00200513          	li	a0,2
80001c30:	00c686b3          	add	a3,a3,a2
80001c34:	40b50533          	sub	a0,a0,a1
80001c38:	fff78793          	addi	a5,a5,-1
80001c3c:	00f57533          	and	a0,a0,a5
80001c40:	00d70733          	add	a4,a4,a3
80001c44:	00e50533          	add	a0,a0,a4
80001c48:	00008067          	ret
