
/home/zzyubuntu/ics2022/am-kernels/tests/cpu-tests/build/string-riscv32-nemu.elf:     file format elf32-littleriscv


Disassembly of section .text:

80000000 <_start>:
80000000:	00000413          	li	s0,0
80000004:	00009117          	auipc	sp,0x9
80000008:	ffc10113          	addi	sp,sp,-4 # 80009000 <_end>
8000000c:	124000ef          	jal	ra,80000130 <_trm_init>

80000010 <check>:
80000010:	00050463          	beqz	a0,80000018 <check+0x8>
80000014:	00008067          	ret
80000018:	ff010113          	addi	sp,sp,-16
8000001c:	00100513          	li	a0,1
80000020:	00112623          	sw	ra,12(sp)
80000024:	100000ef          	jal	ra,80000124 <halt>

80000028 <main>:
80000028:	ff010113          	addi	sp,sp,-16
8000002c:	00812423          	sw	s0,8(sp)
80000030:	80000437          	lui	s0,0x80000
80000034:	2f840413          	addi	s0,s0,760 # 800002f8 <_end+0xffff72f8>
80000038:	00842583          	lw	a1,8(s0)
8000003c:	00042503          	lw	a0,0(s0)
80000040:	00112623          	sw	ra,12(sp)
80000044:	00912223          	sw	s1,4(sp)
80000048:	17c000ef          	jal	ra,800001c4 <strcmp>
8000004c:	00153513          	seqz	a0,a0
80000050:	fc1ff0ef          	jal	ra,80000010 <check>
80000054:	00442583          	lw	a1,4(s0)
80000058:	00042503          	lw	a0,0(s0)
8000005c:	800004b7          	lui	s1,0x80000
80000060:	164000ef          	jal	ra,800001c4 <strcmp>
80000064:	01f55513          	srli	a0,a0,0x1f
80000068:	fa9ff0ef          	jal	ra,80000010 <check>
8000006c:	00442583          	lw	a1,4(s0)
80000070:	00042503          	lw	a0,0(s0)
80000074:	00158593          	addi	a1,a1,1
80000078:	00150513          	addi	a0,a0,1
8000007c:	148000ef          	jal	ra,800001c4 <strcmp>
80000080:	01f55513          	srli	a0,a0,0x1f
80000084:	f8dff0ef          	jal	ra,80000010 <check>
80000088:	00442583          	lw	a1,4(s0)
8000008c:	00042503          	lw	a0,0(s0)
80000090:	00258593          	addi	a1,a1,2
80000094:	00250513          	addi	a0,a0,2
80000098:	12c000ef          	jal	ra,800001c4 <strcmp>
8000009c:	01f55513          	srli	a0,a0,0x1f
800000a0:	f71ff0ef          	jal	ra,80000010 <check>
800000a4:	00442583          	lw	a1,4(s0)
800000a8:	00042503          	lw	a0,0(s0)
800000ac:	00358593          	addi	a1,a1,3
800000b0:	00350513          	addi	a0,a0,3
800000b4:	110000ef          	jal	ra,800001c4 <strcmp>
800000b8:	01f55513          	srli	a0,a0,0x1f
800000bc:	f55ff0ef          	jal	ra,80000010 <check>
800000c0:	800005b7          	lui	a1,0x80000
800000c4:	31058593          	addi	a1,a1,784 # 80000310 <_end+0xffff7310>
800000c8:	31848513          	addi	a0,s1,792 # 80000318 <_end+0xffff7318>
800000cc:	084000ef          	jal	ra,80000150 <strcpy>
800000d0:	00c42583          	lw	a1,12(s0)
800000d4:	0a4000ef          	jal	ra,80000178 <strcat>
800000d8:	01042583          	lw	a1,16(s0)
800000dc:	0e8000ef          	jal	ra,800001c4 <strcmp>
800000e0:	00153513          	seqz	a0,a0
800000e4:	f2dff0ef          	jal	ra,80000010 <check>
800000e8:	00500613          	li	a2,5
800000ec:	02300593          	li	a1,35
800000f0:	31848513          	addi	a0,s1,792
800000f4:	108000ef          	jal	ra,800001fc <memset>
800000f8:	01442583          	lw	a1,20(s0)
800000fc:	00500613          	li	a2,5
80000100:	11c000ef          	jal	ra,8000021c <memcmp>
80000104:	00153513          	seqz	a0,a0
80000108:	f09ff0ef          	jal	ra,80000010 <check>
8000010c:	00c12083          	lw	ra,12(sp)
80000110:	00812403          	lw	s0,8(sp)
80000114:	00412483          	lw	s1,4(sp)
80000118:	00000513          	li	a0,0
8000011c:	01010113          	addi	sp,sp,16
80000120:	00008067          	ret

80000124 <halt>:
80000124:	00050513          	mv	a0,a0
80000128:	00100073          	ebreak
8000012c:	0000006f          	j	8000012c <halt+0x8>

80000130 <_trm_init>:
80000130:	80000537          	lui	a0,0x80000
80000134:	ff010113          	addi	sp,sp,-16
80000138:	2f450513          	addi	a0,a0,756 # 800002f4 <_end+0xffff72f4>
8000013c:	00112623          	sw	ra,12(sp)
80000140:	ee9ff0ef          	jal	ra,80000028 <main>
80000144:	00050513          	mv	a0,a0
80000148:	00100073          	ebreak
8000014c:	0000006f          	j	8000014c <_trm_init+0x1c>

80000150 <strcpy>:
80000150:	0005c783          	lbu	a5,0(a1)
80000154:	02078063          	beqz	a5,80000174 <strcpy+0x24>
80000158:	00050713          	mv	a4,a0
8000015c:	00158593          	addi	a1,a1,1
80000160:	00f70023          	sb	a5,0(a4)
80000164:	0005c783          	lbu	a5,0(a1)
80000168:	00170713          	addi	a4,a4,1
8000016c:	00158593          	addi	a1,a1,1
80000170:	fe0798e3          	bnez	a5,80000160 <strcpy+0x10>
80000174:	00008067          	ret

80000178 <strcat>:
80000178:	00054783          	lbu	a5,0(a0)
8000017c:	04078063          	beqz	a5,800001bc <strcat+0x44>
80000180:	00000793          	li	a5,0
80000184:	00178793          	addi	a5,a5,1
80000188:	00f50733          	add	a4,a0,a5
8000018c:	00074703          	lbu	a4,0(a4)
80000190:	fe071ae3          	bnez	a4,80000184 <strcat+0xc>
80000194:	0005c703          	lbu	a4,0(a1)
80000198:	02070063          	beqz	a4,800001b8 <strcat+0x40>
8000019c:	00f507b3          	add	a5,a0,a5
800001a0:	00158593          	addi	a1,a1,1
800001a4:	00e78023          	sb	a4,0(a5)
800001a8:	0005c703          	lbu	a4,0(a1)
800001ac:	00178793          	addi	a5,a5,1
800001b0:	00158593          	addi	a1,a1,1
800001b4:	fe0718e3          	bnez	a4,800001a4 <strcat+0x2c>
800001b8:	00008067          	ret
800001bc:	00000793          	li	a5,0
800001c0:	fd5ff06f          	j	80000194 <strcat+0x1c>

800001c4 <strcmp>:
800001c4:	00054703          	lbu	a4,0(a0)
800001c8:	0005c683          	lbu	a3,0(a1)
800001cc:	02d71063          	bne	a4,a3,800001ec <strcmp+0x28>
800001d0:	00150793          	addi	a5,a0,1
800001d4:	00158593          	addi	a1,a1,1
800001d8:	0007c703          	lbu	a4,0(a5)
800001dc:	0005c683          	lbu	a3,0(a1)
800001e0:	00178793          	addi	a5,a5,1
800001e4:	00158593          	addi	a1,a1,1
800001e8:	fed708e3          	beq	a4,a3,800001d8 <strcmp+0x14>
800001ec:	00d73533          	sltu	a0,a4,a3
800001f0:	40a00533          	neg	a0,a0
800001f4:	00156513          	ori	a0,a0,1
800001f8:	00008067          	ret

800001fc <memset>:
800001fc:	00060e63          	beqz	a2,80000218 <memset+0x1c>
80000200:	00261613          	slli	a2,a2,0x2
80000204:	00050793          	mv	a5,a0
80000208:	00a60733          	add	a4,a2,a0
8000020c:	00b7a023          	sw	a1,0(a5)
80000210:	00478793          	addi	a5,a5,4
80000214:	fee79ce3          	bne	a5,a4,8000020c <memset+0x10>
80000218:	00008067          	ret

8000021c <memcmp>:
8000021c:	00054683          	lbu	a3,0(a0)
80000220:	0005c703          	lbu	a4,0(a1)
80000224:	04e69863          	bne	a3,a4,80000274 <memcmp+0x58>
80000228:	02060c63          	beqz	a2,80000260 <memcmp+0x44>
8000022c:	00000793          	li	a5,0
80000230:	0080006f          	j	80000238 <memcmp+0x1c>
80000234:	02f60663          	beq	a2,a5,80000260 <memcmp+0x44>
80000238:	00178793          	addi	a5,a5,1
8000023c:	00f506b3          	add	a3,a0,a5
80000240:	00f58733          	add	a4,a1,a5
80000244:	0006c683          	lbu	a3,0(a3)
80000248:	00074703          	lbu	a4,0(a4)
8000024c:	fee684e3          	beq	a3,a4,80000234 <memcmp+0x18>
80000250:	00f60863          	beq	a2,a5,80000260 <memcmp+0x44>
80000254:	fff00513          	li	a0,-1
80000258:	00e6f863          	bgeu	a3,a4,80000268 <memcmp+0x4c>
8000025c:	00008067          	ret
80000260:	00000513          	li	a0,0
80000264:	00008067          	ret
80000268:	40d70733          	sub	a4,a4,a3
8000026c:	00e03533          	snez	a0,a4
80000270:	00008067          	ret
80000274:	00000793          	li	a5,0
80000278:	fcf61ee3          	bne	a2,a5,80000254 <memcmp+0x38>
8000027c:	fe5ff06f          	j	80000260 <memcmp+0x44>
